Component: ARM Compiler 6.16 Tool: armlink [5dfeaa00]

==============================================================================

Section Cross References

    startup_mspm0g350x_uvision.o(STACK) refers (Special) to heapauxi.o(.text) for __use_two_region_memory
    startup_mspm0g350x_uvision.o(HEAP) refers (Special) to heapauxi.o(.text) for __use_two_region_memory
    startup_mspm0g350x_uvision.o(RESET) refers (Special) to heapauxi.o(.text) for __use_two_region_memory
    startup_mspm0g350x_uvision.o(RESET) refers to startup_mspm0g350x_uvision.o(STACK) for __initial_sp
    startup_mspm0g350x_uvision.o(RESET) refers to startup_mspm0g350x_uvision.o(.text) for Reset_Handler
    startup_mspm0g350x_uvision.o(RESET) refers to bsp_encoder.o(.text.GROUP1_IRQHandler) for GROUP1_IRQHandler
    startup_mspm0g350x_uvision.o(RESET) refers to bsp_usart3.o(.text.UART3_IRQHandler) for UART3_IRQHandler
    startup_mspm0g350x_uvision.o(RESET) refers to bsp_infrared_light.o(.text.ADC0_IRQHandler) for ADC0_IRQHandler
    startup_mspm0g350x_uvision.o(RESET) refers to bsp_bluetooth.o(.text.UART1_IRQHandler) for UART1_IRQHandler
    startup_mspm0g350x_uvision.o(RESET) refers to bsp_usart2.o(.text.UART2_IRQHandler) for UART2_IRQHandler
    startup_mspm0g350x_uvision.o(RESET) refers to usart0.o(.text.UART0_IRQHandler) for UART0_IRQHandler
    startup_mspm0g350x_uvision.o(RESET) refers to bsp_timer.o(.text.TIMG0_IRQHandler) for TIMG0_IRQHandler
    startup_mspm0g350x_uvision.o(RESET) refers to bsp_ultrasonic.o(.text.TIMA1_IRQHandler) for TIMA1_IRQHandler
    startup_mspm0g350x_uvision.o(.text) refers (Special) to heapauxi.o(.text) for __use_two_region_memory
    startup_mspm0g350x_uvision.o(.text) refers to __main.o(!!!main) for __main
    startup_mspm0g350x_uvision.o(.text) refers to startup_mspm0g350x_uvision.o(HEAP) for Heap_Mem
    startup_mspm0g350x_uvision.o(.text) refers to startup_mspm0g350x_uvision.o(STACK) for Stack_Mem
    ti_msp_dl_config.o(.text.SYSCFG_DL_init) refers to ti_msp_dl_config.o(.text.SYSCFG_DL_initPower) for SYSCFG_DL_initPower
    ti_msp_dl_config.o(.text.SYSCFG_DL_init) refers to ti_msp_dl_config.o(.text.SYSCFG_DL_GPIO_init) for SYSCFG_DL_GPIO_init
    ti_msp_dl_config.o(.text.SYSCFG_DL_init) refers to ti_msp_dl_config.o(.text.SYSCFG_DL_SYSCTL_init) for SYSCFG_DL_SYSCTL_init
    ti_msp_dl_config.o(.text.SYSCFG_DL_init) refers to ti_msp_dl_config.o(.text.SYSCFG_DL_motor_PWM_init) for SYSCFG_DL_motor_PWM_init
    ti_msp_dl_config.o(.text.SYSCFG_DL_init) refers to ti_msp_dl_config.o(.text.SYSCFG_DL_PWM_Servo_init) for SYSCFG_DL_PWM_Servo_init
    ti_msp_dl_config.o(.text.SYSCFG_DL_init) refers to ti_msp_dl_config.o(.text.SYSCFG_DL_TIMER_20ms_init) for SYSCFG_DL_TIMER_20ms_init
    ti_msp_dl_config.o(.text.SYSCFG_DL_init) refers to ti_msp_dl_config.o(.text.SYSCFG_DL_TIMER_1ms_init) for SYSCFG_DL_TIMER_1ms_init
    ti_msp_dl_config.o(.text.SYSCFG_DL_init) refers to ti_msp_dl_config.o(.text.SYSCFG_DL_UART_0_init) for SYSCFG_DL_UART_0_init
    ti_msp_dl_config.o(.text.SYSCFG_DL_init) refers to ti_msp_dl_config.o(.text.SYSCFG_DL_UART_1_init) for SYSCFG_DL_UART_1_init
    ti_msp_dl_config.o(.text.SYSCFG_DL_init) refers to ti_msp_dl_config.o(.text.SYSCFG_DL_UART_2_init) for SYSCFG_DL_UART_2_init
    ti_msp_dl_config.o(.text.SYSCFG_DL_init) refers to ti_msp_dl_config.o(.text.SYSCFG_DL_UART_3_init) for SYSCFG_DL_UART_3_init
    ti_msp_dl_config.o(.text.SYSCFG_DL_init) refers to ti_msp_dl_config.o(.text.SYSCFG_DL_SPI_W25Q64_init) for SYSCFG_DL_SPI_W25Q64_init
    ti_msp_dl_config.o(.text.SYSCFG_DL_init) refers to ti_msp_dl_config.o(.text.SYSCFG_DL_ADC_Senor_init) for SYSCFG_DL_ADC_Senor_init
    ti_msp_dl_config.o(.text.SYSCFG_DL_init) refers to ti_msp_dl_config.o(.text.SYSCFG_DL_SYSTICK_init) for SYSCFG_DL_SYSTICK_init
    ti_msp_dl_config.o(.text.SYSCFG_DL_init) refers to ti_msp_dl_config.o(.text.SYSCFG_DL_SYSCTL_CLK_init) for SYSCFG_DL_SYSCTL_CLK_init
    ti_msp_dl_config.o(.text.SYSCFG_DL_init) refers to ti_msp_dl_config.o(.bss.gPWM_ServoBackup) for gPWM_ServoBackup
    ti_msp_dl_config.o(.text.SYSCFG_DL_init) refers to ti_msp_dl_config.o(.bss.gmotor_PWMBackup) for gmotor_PWMBackup
    ti_msp_dl_config.o(.text.SYSCFG_DL_init) refers to ti_msp_dl_config.o(.bss.gTIMER_1msBackup) for gTIMER_1msBackup
    ti_msp_dl_config.o(.text.SYSCFG_DL_init) refers to ti_msp_dl_config.o(.bss.gUART_3Backup) for gUART_3Backup
    ti_msp_dl_config.o(.text.SYSCFG_DL_init) refers to ti_msp_dl_config.o(.bss.gSPI_W25Q64Backup) for gSPI_W25Q64Backup
    ti_msp_dl_config.o(.ARM.exidx.text.SYSCFG_DL_init) refers to ti_msp_dl_config.o(.text.SYSCFG_DL_init) for [Anonymous Symbol]
    ti_msp_dl_config.o(.text.SYSCFG_DL_initPower) refers to dl_common.o(.text.DL_Common_delayCycles) for DL_Common_delayCycles
    ti_msp_dl_config.o(.ARM.exidx.text.SYSCFG_DL_initPower) refers to ti_msp_dl_config.o(.text.SYSCFG_DL_initPower) for [Anonymous Symbol]
    ti_msp_dl_config.o(.ARM.exidx.text.SYSCFG_DL_GPIO_init) refers to ti_msp_dl_config.o(.text.SYSCFG_DL_GPIO_init) for [Anonymous Symbol]
    ti_msp_dl_config.o(.text.SYSCFG_DL_SYSCTL_init) refers to dl_sysctl_mspm0g1x0x_g3x0x.o(.text.DL_SYSCTL_setHFCLKSourceHFXTParams) for DL_SYSCTL_setHFCLKSourceHFXTParams
    ti_msp_dl_config.o(.text.SYSCFG_DL_SYSCTL_init) refers to dl_sysctl_mspm0g1x0x_g3x0x.o(.text.DL_SYSCTL_configSYSPLL) for DL_SYSCTL_configSYSPLL
    ti_msp_dl_config.o(.text.SYSCFG_DL_SYSCTL_init) refers to dl_sysctl_mspm0g1x0x_g3x0x.o(.text.DL_SYSCTL_switchMCLKfromSYSOSCtoHSCLK) for DL_SYSCTL_switchMCLKfromSYSOSCtoHSCLK
    ti_msp_dl_config.o(.text.SYSCFG_DL_SYSCTL_init) refers to ti_msp_dl_config.o(.rodata.gSYSPLLConfig) for [Anonymous Symbol]
    ti_msp_dl_config.o(.ARM.exidx.text.SYSCFG_DL_SYSCTL_init) refers to ti_msp_dl_config.o(.text.SYSCFG_DL_SYSCTL_init) for [Anonymous Symbol]
    ti_msp_dl_config.o(.text.SYSCFG_DL_motor_PWM_init) refers to dl_timer.o(.text.DL_Timer_setClockConfig) for DL_Timer_setClockConfig
    ti_msp_dl_config.o(.text.SYSCFG_DL_motor_PWM_init) refers to dl_timer.o(.text.DL_Timer_initFourCCPWMMode) for DL_Timer_initFourCCPWMMode
    ti_msp_dl_config.o(.text.SYSCFG_DL_motor_PWM_init) refers to dl_timer.o(.text.DL_Timer_setCaptureCompareOutCtl) for DL_Timer_setCaptureCompareOutCtl
    ti_msp_dl_config.o(.text.SYSCFG_DL_motor_PWM_init) refers to dl_timer.o(.text.DL_Timer_setCaptCompUpdateMethod) for DL_Timer_setCaptCompUpdateMethod
    ti_msp_dl_config.o(.text.SYSCFG_DL_motor_PWM_init) refers to dl_timer.o(.text.DL_Timer_setCaptureCompareValue) for DL_Timer_setCaptureCompareValue
    ti_msp_dl_config.o(.text.SYSCFG_DL_motor_PWM_init) refers to ti_msp_dl_config.o(.rodata.gmotor_PWMClockConfig) for [Anonymous Symbol]
    ti_msp_dl_config.o(.text.SYSCFG_DL_motor_PWM_init) refers to ti_msp_dl_config.o(.rodata.gmotor_PWMConfig) for [Anonymous Symbol]
    ti_msp_dl_config.o(.ARM.exidx.text.SYSCFG_DL_motor_PWM_init) refers to ti_msp_dl_config.o(.text.SYSCFG_DL_motor_PWM_init) for [Anonymous Symbol]
    ti_msp_dl_config.o(.text.SYSCFG_DL_PWM_Servo_init) refers to dl_timer.o(.text.DL_Timer_setClockConfig) for DL_Timer_setClockConfig
    ti_msp_dl_config.o(.text.SYSCFG_DL_PWM_Servo_init) refers to dl_timer.o(.text.DL_Timer_initFourCCPWMMode) for DL_Timer_initFourCCPWMMode
    ti_msp_dl_config.o(.text.SYSCFG_DL_PWM_Servo_init) refers to dl_timer.o(.text.DL_Timer_setCaptureCompareOutCtl) for DL_Timer_setCaptureCompareOutCtl
    ti_msp_dl_config.o(.text.SYSCFG_DL_PWM_Servo_init) refers to dl_timer.o(.text.DL_Timer_setCaptCompUpdateMethod) for DL_Timer_setCaptCompUpdateMethod
    ti_msp_dl_config.o(.text.SYSCFG_DL_PWM_Servo_init) refers to dl_timer.o(.text.DL_Timer_setCaptureCompareValue) for DL_Timer_setCaptureCompareValue
    ti_msp_dl_config.o(.text.SYSCFG_DL_PWM_Servo_init) refers to ti_msp_dl_config.o(.rodata.gPWM_ServoClockConfig) for [Anonymous Symbol]
    ti_msp_dl_config.o(.text.SYSCFG_DL_PWM_Servo_init) refers to ti_msp_dl_config.o(.rodata.gPWM_ServoConfig) for [Anonymous Symbol]
    ti_msp_dl_config.o(.ARM.exidx.text.SYSCFG_DL_PWM_Servo_init) refers to ti_msp_dl_config.o(.text.SYSCFG_DL_PWM_Servo_init) for [Anonymous Symbol]
    ti_msp_dl_config.o(.text.SYSCFG_DL_TIMER_20ms_init) refers to dl_timer.o(.text.DL_Timer_setClockConfig) for DL_Timer_setClockConfig
    ti_msp_dl_config.o(.text.SYSCFG_DL_TIMER_20ms_init) refers to dl_timer.o(.text.DL_Timer_initTimerMode) for DL_Timer_initTimerMode
    ti_msp_dl_config.o(.text.SYSCFG_DL_TIMER_20ms_init) refers to ti_msp_dl_config.o(.rodata.gTIMER_20msClockConfig) for [Anonymous Symbol]
    ti_msp_dl_config.o(.text.SYSCFG_DL_TIMER_20ms_init) refers to ti_msp_dl_config.o(.rodata.gTIMER_20msTimerConfig) for [Anonymous Symbol]
    ti_msp_dl_config.o(.ARM.exidx.text.SYSCFG_DL_TIMER_20ms_init) refers to ti_msp_dl_config.o(.text.SYSCFG_DL_TIMER_20ms_init) for [Anonymous Symbol]
    ti_msp_dl_config.o(.text.SYSCFG_DL_TIMER_1ms_init) refers to dl_timer.o(.text.DL_Timer_setClockConfig) for DL_Timer_setClockConfig
    ti_msp_dl_config.o(.text.SYSCFG_DL_TIMER_1ms_init) refers to dl_timer.o(.text.DL_Timer_initTimerMode) for DL_Timer_initTimerMode
    ti_msp_dl_config.o(.text.SYSCFG_DL_TIMER_1ms_init) refers to ti_msp_dl_config.o(.rodata.gTIMER_1msClockConfig) for [Anonymous Symbol]
    ti_msp_dl_config.o(.text.SYSCFG_DL_TIMER_1ms_init) refers to ti_msp_dl_config.o(.rodata.gTIMER_1msTimerConfig) for [Anonymous Symbol]
    ti_msp_dl_config.o(.ARM.exidx.text.SYSCFG_DL_TIMER_1ms_init) refers to ti_msp_dl_config.o(.text.SYSCFG_DL_TIMER_1ms_init) for [Anonymous Symbol]
    ti_msp_dl_config.o(.text.SYSCFG_DL_UART_0_init) refers to dl_uart.o(.text.DL_UART_setClockConfig) for DL_UART_setClockConfig
    ti_msp_dl_config.o(.text.SYSCFG_DL_UART_0_init) refers to dl_uart.o(.text.DL_UART_init) for DL_UART_init
    ti_msp_dl_config.o(.text.SYSCFG_DL_UART_0_init) refers to ti_msp_dl_config.o(.rodata.gUART_0ClockConfig) for [Anonymous Symbol]
    ti_msp_dl_config.o(.text.SYSCFG_DL_UART_0_init) refers to ti_msp_dl_config.o(.rodata.gUART_0Config) for [Anonymous Symbol]
    ti_msp_dl_config.o(.ARM.exidx.text.SYSCFG_DL_UART_0_init) refers to ti_msp_dl_config.o(.text.SYSCFG_DL_UART_0_init) for [Anonymous Symbol]
    ti_msp_dl_config.o(.text.SYSCFG_DL_UART_1_init) refers to dl_uart.o(.text.DL_UART_setClockConfig) for DL_UART_setClockConfig
    ti_msp_dl_config.o(.text.SYSCFG_DL_UART_1_init) refers to dl_uart.o(.text.DL_UART_init) for DL_UART_init
    ti_msp_dl_config.o(.text.SYSCFG_DL_UART_1_init) refers to ti_msp_dl_config.o(.rodata.gUART_1ClockConfig) for [Anonymous Symbol]
    ti_msp_dl_config.o(.text.SYSCFG_DL_UART_1_init) refers to ti_msp_dl_config.o(.rodata.gUART_1Config) for [Anonymous Symbol]
    ti_msp_dl_config.o(.ARM.exidx.text.SYSCFG_DL_UART_1_init) refers to ti_msp_dl_config.o(.text.SYSCFG_DL_UART_1_init) for [Anonymous Symbol]
    ti_msp_dl_config.o(.text.SYSCFG_DL_UART_2_init) refers to dl_uart.o(.text.DL_UART_setClockConfig) for DL_UART_setClockConfig
    ti_msp_dl_config.o(.text.SYSCFG_DL_UART_2_init) refers to dl_uart.o(.text.DL_UART_init) for DL_UART_init
    ti_msp_dl_config.o(.text.SYSCFG_DL_UART_2_init) refers to ti_msp_dl_config.o(.rodata.gUART_2ClockConfig) for [Anonymous Symbol]
    ti_msp_dl_config.o(.text.SYSCFG_DL_UART_2_init) refers to ti_msp_dl_config.o(.rodata.gUART_2Config) for [Anonymous Symbol]
    ti_msp_dl_config.o(.ARM.exidx.text.SYSCFG_DL_UART_2_init) refers to ti_msp_dl_config.o(.text.SYSCFG_DL_UART_2_init) for [Anonymous Symbol]
    ti_msp_dl_config.o(.text.SYSCFG_DL_UART_3_init) refers to dl_uart.o(.text.DL_UART_setClockConfig) for DL_UART_setClockConfig
    ti_msp_dl_config.o(.text.SYSCFG_DL_UART_3_init) refers to dl_uart.o(.text.DL_UART_init) for DL_UART_init
    ti_msp_dl_config.o(.text.SYSCFG_DL_UART_3_init) refers to ti_msp_dl_config.o(.rodata.gUART_3ClockConfig) for [Anonymous Symbol]
    ti_msp_dl_config.o(.text.SYSCFG_DL_UART_3_init) refers to ti_msp_dl_config.o(.rodata.gUART_3Config) for [Anonymous Symbol]
    ti_msp_dl_config.o(.ARM.exidx.text.SYSCFG_DL_UART_3_init) refers to ti_msp_dl_config.o(.text.SYSCFG_DL_UART_3_init) for [Anonymous Symbol]
    ti_msp_dl_config.o(.text.SYSCFG_DL_SPI_W25Q64_init) refers to dl_spi.o(.text.DL_SPI_setClockConfig) for DL_SPI_setClockConfig
    ti_msp_dl_config.o(.text.SYSCFG_DL_SPI_W25Q64_init) refers to dl_spi.o(.text.DL_SPI_init) for DL_SPI_init
    ti_msp_dl_config.o(.text.SYSCFG_DL_SPI_W25Q64_init) refers to ti_msp_dl_config.o(.rodata.gSPI_W25Q64_clockConfig) for [Anonymous Symbol]
    ti_msp_dl_config.o(.text.SYSCFG_DL_SPI_W25Q64_init) refers to ti_msp_dl_config.o(.rodata.gSPI_W25Q64_config) for [Anonymous Symbol]
    ti_msp_dl_config.o(.ARM.exidx.text.SYSCFG_DL_SPI_W25Q64_init) refers to ti_msp_dl_config.o(.text.SYSCFG_DL_SPI_W25Q64_init) for [Anonymous Symbol]
    ti_msp_dl_config.o(.text.SYSCFG_DL_ADC_Senor_init) refers to dl_adc12.o(.text.DL_ADC12_setClockConfig) for DL_ADC12_setClockConfig
    ti_msp_dl_config.o(.text.SYSCFG_DL_ADC_Senor_init) refers to ti_msp_dl_config.o(.rodata.gADC_SenorClockConfig) for [Anonymous Symbol]
    ti_msp_dl_config.o(.ARM.exidx.text.SYSCFG_DL_ADC_Senor_init) refers to ti_msp_dl_config.o(.text.SYSCFG_DL_ADC_Senor_init) for [Anonymous Symbol]
    ti_msp_dl_config.o(.ARM.exidx.text.SYSCFG_DL_SYSTICK_init) refers to ti_msp_dl_config.o(.text.SYSCFG_DL_SYSTICK_init) for [Anonymous Symbol]
    ti_msp_dl_config.o(.ARM.exidx.text.SYSCFG_DL_SYSCTL_CLK_init) refers to ti_msp_dl_config.o(.text.SYSCFG_DL_SYSCTL_CLK_init) for [Anonymous Symbol]
    ti_msp_dl_config.o(.text.SYSCFG_DL_saveConfiguration) refers to dl_timer.o(.text.DL_TimerA_saveConfiguration) for DL_TimerA_saveConfiguration
    ti_msp_dl_config.o(.text.SYSCFG_DL_saveConfiguration) refers to dl_timer.o(.text.DL_Timer_saveConfiguration) for DL_Timer_saveConfiguration
    ti_msp_dl_config.o(.text.SYSCFG_DL_saveConfiguration) refers to dl_uart.o(.text.DL_UART_Main_saveConfiguration) for DL_UART_Main_saveConfiguration
    ti_msp_dl_config.o(.text.SYSCFG_DL_saveConfiguration) refers to dl_spi.o(.text.DL_SPI_saveConfiguration) for DL_SPI_saveConfiguration
    ti_msp_dl_config.o(.text.SYSCFG_DL_saveConfiguration) refers to ti_msp_dl_config.o(.bss.gmotor_PWMBackup) for gmotor_PWMBackup
    ti_msp_dl_config.o(.text.SYSCFG_DL_saveConfiguration) refers to ti_msp_dl_config.o(.bss.gPWM_ServoBackup) for gPWM_ServoBackup
    ti_msp_dl_config.o(.text.SYSCFG_DL_saveConfiguration) refers to ti_msp_dl_config.o(.bss.gTIMER_1msBackup) for gTIMER_1msBackup
    ti_msp_dl_config.o(.text.SYSCFG_DL_saveConfiguration) refers to ti_msp_dl_config.o(.bss.gUART_3Backup) for gUART_3Backup
    ti_msp_dl_config.o(.text.SYSCFG_DL_saveConfiguration) refers to ti_msp_dl_config.o(.bss.gSPI_W25Q64Backup) for gSPI_W25Q64Backup
    ti_msp_dl_config.o(.ARM.exidx.text.SYSCFG_DL_saveConfiguration) refers to ti_msp_dl_config.o(.text.SYSCFG_DL_saveConfiguration) for [Anonymous Symbol]
    ti_msp_dl_config.o(.text.SYSCFG_DL_restoreConfiguration) refers to dl_timer.o(.text.DL_TimerA_restoreConfiguration) for DL_TimerA_restoreConfiguration
    ti_msp_dl_config.o(.text.SYSCFG_DL_restoreConfiguration) refers to dl_timer.o(.text.DL_Timer_restoreConfiguration) for DL_Timer_restoreConfiguration
    ti_msp_dl_config.o(.text.SYSCFG_DL_restoreConfiguration) refers to dl_uart.o(.text.DL_UART_Main_restoreConfiguration) for DL_UART_Main_restoreConfiguration
    ti_msp_dl_config.o(.text.SYSCFG_DL_restoreConfiguration) refers to dl_spi.o(.text.DL_SPI_restoreConfiguration) for DL_SPI_restoreConfiguration
    ti_msp_dl_config.o(.text.SYSCFG_DL_restoreConfiguration) refers to ti_msp_dl_config.o(.bss.gmotor_PWMBackup) for gmotor_PWMBackup
    ti_msp_dl_config.o(.text.SYSCFG_DL_restoreConfiguration) refers to ti_msp_dl_config.o(.bss.gPWM_ServoBackup) for gPWM_ServoBackup
    ti_msp_dl_config.o(.text.SYSCFG_DL_restoreConfiguration) refers to ti_msp_dl_config.o(.bss.gTIMER_1msBackup) for gTIMER_1msBackup
    ti_msp_dl_config.o(.text.SYSCFG_DL_restoreConfiguration) refers to ti_msp_dl_config.o(.bss.gUART_3Backup) for gUART_3Backup
    ti_msp_dl_config.o(.text.SYSCFG_DL_restoreConfiguration) refers to ti_msp_dl_config.o(.bss.gSPI_W25Q64Backup) for gSPI_W25Q64Backup
    ti_msp_dl_config.o(.ARM.exidx.text.SYSCFG_DL_restoreConfiguration) refers to ti_msp_dl_config.o(.text.SYSCFG_DL_restoreConfiguration) for [Anonymous Symbol]
    main.o(.text.main) refers to bsp.o(.text.bsp_init) for bsp_init
    main.o(.text.main) refers to app_bluetooth.o(.text.USE_Bluetooth_Control) for USE_Bluetooth_Control
    main.o(.ARM.exidx.text.main) refers to main.o(.text.main) for [Anonymous Symbol]
    bsp.o(.text.board_init) refers to ti_msp_dl_config.o(.text.SYSCFG_DL_init) for SYSCFG_DL_init
    bsp.o(.text.board_init) refers to puts.o(.text) for puts
    bsp.o(.text.board_init) refers to bsp.o(.rodata.str1.1) for [Anonymous Symbol]
    bsp.o(.ARM.exidx.text.board_init) refers to bsp.o(.text.board_init) for [Anonymous Symbol]
    bsp.o(.text.bsp_init) refers to ti_msp_dl_config.o(.text.SYSCFG_DL_init) for SYSCFG_DL_init
    bsp.o(.text.bsp_init) refers to puts.o(.text) for puts
    bsp.o(.text.bsp_init) refers to bsp_infrared_light.o(.text.ADC_Init) for ADC_Init
    bsp.o(.text.bsp_init) refers to bsp_ir_receiver.o(.text.infrared_config) for infrared_config
    bsp.o(.text.bsp_init) refers to bsp_motor.o(.text.Init_Motor_PWM) for Init_Motor_PWM
    bsp.o(.text.bsp_init) refers to bsp_encoder.o(.text.encoder_init) for encoder_init
    bsp.o(.text.bsp_init) refers to bsp_pid_motor.o(.text.PID_Param_Init) for PID_Param_Init
    bsp.o(.text.bsp_init) refers to oled.o(.text.OLED_Init) for OLED_Init
    bsp.o(.text.bsp_init) refers to bsp_ultrasonic.o(.text.Ultrasonic_Init) for Ultrasonic_Init
    bsp.o(.text.bsp_init) refers to bsp_servo.o(.text.servo_init) for servo_init
    bsp.o(.text.bsp_init) refers to bsp_servo.o(.text.Set_Servo_Angle) for Set_Servo_Angle
    bsp.o(.text.bsp_init) refers to bsp_bluetooth.o(.text.bluetooth_init) for bluetooth_init
    bsp.o(.text.bsp_init) refers to bsp_usart2.o(.text.usart2_init) for usart2_init
    bsp.o(.text.bsp_init) refers to bsp_usart3.o(.text.usart3_init) for usart3_init
    bsp.o(.text.bsp_init) refers to bsp.o(.rodata.str1.1) for [Anonymous Symbol]
    bsp.o(.ARM.exidx.text.bsp_init) refers to bsp.o(.text.bsp_init) for [Anonymous Symbol]
    delay.o(.ARM.exidx.text.delay_us) refers to delay.o(.text.delay_us) for [Anonymous Symbol]
    delay.o(.ARM.exidx.text.delay_ms) refers to delay.o(.text.delay_ms) for [Anonymous Symbol]
    delay.o(.ARM.exidx.text.delay_1us) refers to delay.o(.text.delay_1us) for [Anonymous Symbol]
    delay.o(.ARM.exidx.text.delay_1ms) refers to delay.o(.text.delay_1ms) for [Anonymous Symbol]
    usart0.o(.ARM.exidx.text.uart0_send_char) refers to usart0.o(.text.uart0_send_char) for [Anonymous Symbol]
    usart0.o(.ARM.exidx.text.uart0_send_string) refers to usart0.o(.text.uart0_send_string) for [Anonymous Symbol]
    usart0.o(.ARM.exidx.text._sys_exit) refers to usart0.o(.text._sys_exit) for [Anonymous Symbol]
    usart0.o(.ARM.exidx.text.fputc) refers to usart0.o(.text.fputc) for [Anonymous Symbol]
    usart0.o(.text.UART0_IRQHandler) refers to usart0.o(.bss.recv0_length) for recv0_length
    usart0.o(.text.UART0_IRQHandler) refers to usart0.o(.bss.recv0_buff) for recv0_buff
    usart0.o(.text.UART0_IRQHandler) refers to usart0.o(.bss.recv0_flag) for recv0_flag
    usart0.o(.ARM.exidx.text.UART0_IRQHandler) refers to usart0.o(.text.UART0_IRQHandler) for [Anonymous Symbol]
    bsp_beep_led.o(.ARM.exidx.text.OPEN_MCULED) refers to bsp_beep_led.o(.text.OPEN_MCULED) for [Anonymous Symbol]
    bsp_beep_led.o(.ARM.exidx.text.CLOSE_MCULED) refers to bsp_beep_led.o(.text.CLOSE_MCULED) for [Anonymous Symbol]
    bsp_beep_led.o(.ARM.exidx.text.Buzzer_open_state) refers to bsp_beep_led.o(.text.Buzzer_open_state) for [Anonymous Symbol]
    bsp_beep_led.o(.ARM.exidx.text.Buzzer_close_state) refers to bsp_beep_led.o(.text.Buzzer_close_state) for [Anonymous Symbol]
    bsp_key.o(.text.Key1_Long_Press) refers to bsp_key.o(.bss.g_key1_long_press) for g_key1_long_press
    bsp_key.o(.ARM.exidx.text.Key1_Long_Press) refers to bsp_key.o(.text.Key1_Long_Press) for [Anonymous Symbol]
    bsp_key.o(.text.Key1_State) refers to bsp_key.o(.bss.Key1_State.key1_state) for [Anonymous Symbol]
    bsp_key.o(.text.Key1_State) refers to bsp_key.o(.bss.g_key1_long_press) for g_key1_long_press
    bsp_key.o(.ARM.exidx.text.Key1_State) refers to bsp_key.o(.text.Key1_State) for [Anonymous Symbol]
    bsp_key.o(.text.Key2_Long_Press) refers to bsp_key.o(.bss.g_key2_long_press) for g_key2_long_press
    bsp_key.o(.ARM.exidx.text.Key2_Long_Press) refers to bsp_key.o(.text.Key2_Long_Press) for [Anonymous Symbol]
    bsp_key.o(.text.Key2_State) refers to bsp_key.o(.bss.Key2_State.key2_state) for [Anonymous Symbol]
    bsp_key.o(.text.Key2_State) refers to bsp_key.o(.bss.g_key2_long_press) for g_key2_long_press
    bsp_key.o(.ARM.exidx.text.Key2_State) refers to bsp_key.o(.text.Key2_State) for [Anonymous Symbol]
    bsp_key.o(.text.Key3_Long_Press) refers to bsp_key.o(.bss.g_key3_long_press) for g_key3_long_press
    bsp_key.o(.ARM.exidx.text.Key3_Long_Press) refers to bsp_key.o(.text.Key3_Long_Press) for [Anonymous Symbol]
    bsp_key.o(.text.Key3_State) refers to bsp_key.o(.bss.Key3_State.key3_state) for [Anonymous Symbol]
    bsp_key.o(.text.Key3_State) refers to bsp_key.o(.bss.g_key3_long_press) for g_key3_long_press
    bsp_key.o(.ARM.exidx.text.Key3_State) refers to bsp_key.o(.text.Key3_State) for [Anonymous Symbol]
    bsp_rgb.o(.ARM.exidx.text.delay_0_25us) refers to bsp_rgb.o(.text.delay_0_25us) for [Anonymous Symbol]
    bsp_rgb.o(.text.rgb_SetColor) refers to bsp_rgb.o(.data.ledsCount) for ledsCount
    bsp_rgb.o(.text.rgb_SetColor) refers to bsp_rgb.o(.bss.LedsArray) for LedsArray
    bsp_rgb.o(.ARM.exidx.text.rgb_SetColor) refers to bsp_rgb.o(.text.rgb_SetColor) for [Anonymous Symbol]
    bsp_rgb.o(.text.rgb_SetRGB) refers to bsp_rgb.o(.data.ledsCount) for ledsCount
    bsp_rgb.o(.text.rgb_SetRGB) refers to bsp_rgb.o(.bss.LedsArray) for LedsArray
    bsp_rgb.o(.ARM.exidx.text.rgb_SetRGB) refers to bsp_rgb.o(.text.rgb_SetRGB) for [Anonymous Symbol]
    bsp_rgb.o(.text.rgb_SendArray) refers to bsp_rgb.o(.text.Ws2812b_WriteByte) for Ws2812b_WriteByte
    bsp_rgb.o(.text.rgb_SendArray) refers to bsp_rgb.o(.data.nbLedsBytes) for nbLedsBytes
    bsp_rgb.o(.text.rgb_SendArray) refers to bsp_rgb.o(.bss.LedsArray) for LedsArray
    bsp_rgb.o(.ARM.exidx.text.rgb_SendArray) refers to bsp_rgb.o(.text.rgb_SendArray) for [Anonymous Symbol]
    bsp_rgb.o(.text.Ws2812b_WriteByte) refers to delay.o(.text.delay_us) for delay_us
    bsp_rgb.o(.ARM.exidx.text.Ws2812b_WriteByte) refers to bsp_rgb.o(.text.Ws2812b_WriteByte) for [Anonymous Symbol]
    bsp_rgb.o(.text.RGB_LED_Reset) refers to delay.o(.text.delay_us) for delay_us
    bsp_rgb.o(.ARM.exidx.text.RGB_LED_Reset) refers to bsp_rgb.o(.text.RGB_LED_Reset) for [Anonymous Symbol]
    bsp_infrared_light.o(.text.Light_PID) refers to fflti.o(.text) for __aeabi_i2f
    bsp_infrared_light.o(.text.Light_PID) refers to faddsub.o(x$fpl$fadd) for __aeabi_fadd
    bsp_infrared_light.o(.text.Light_PID) refers to fcmp.o(i._fgr) for __aeabi_fcmpgt
    bsp_infrared_light.o(.text.Light_PID) refers to fcmp.o(i._fgeq) for __aeabi_fcmpge
    bsp_infrared_light.o(.text.Light_PID) refers to dflti.o(.text) for __aeabi_i2d
    bsp_infrared_light.o(.text.Light_PID) refers to f2d.o(.text) for __aeabi_f2d
    bsp_infrared_light.o(.text.Light_PID) refers to dmul.o(.text) for __aeabi_dmul
    bsp_infrared_light.o(.text.Light_PID) refers to daddsub.o(.text) for __aeabi_dadd
    bsp_infrared_light.o(.text.Light_PID) refers to d2f.o(.text) for __aeabi_d2f
    bsp_infrared_light.o(.text.Light_PID) refers to bsp_infrared_light.o(.bss.Light_PID.IRLight_Integral) for [Anonymous Symbol]
    bsp_infrared_light.o(.ARM.exidx.text.Light_PID) refers to bsp_infrared_light.o(.text.Light_PID) for [Anonymous Symbol]
    bsp_infrared_light.o(.ARM.exidx.text.Open_IR_Switch) refers to bsp_infrared_light.o(.text.Open_IR_Switch) for [Anonymous Symbol]
    bsp_infrared_light.o(.ARM.exidx.text.Close_IR_Switch) refers to bsp_infrared_light.o(.text.Close_IR_Switch) for [Anonymous Symbol]
    bsp_infrared_light.o(.text.IR_Open_run) refers to fcmp.o(i._fgr) for __aeabi_fcmpgt
    bsp_infrared_light.o(.text.IR_Open_run) refers to fcmp.o(i._fgeq) for __aeabi_fcmpge
    bsp_infrared_light.o(.text.IR_Open_run) refers to f2d.o(.text) for __aeabi_f2d
    bsp_infrared_light.o(.text.IR_Open_run) refers to dmul.o(.text) for __aeabi_dmul
    bsp_infrared_light.o(.text.IR_Open_run) refers to d2f.o(.text) for __aeabi_d2f
    bsp_infrared_light.o(.text.IR_Open_run) refers to ffixi.o(.text) for __aeabi_f2iz
    bsp_infrared_light.o(.text.IR_Open_run) refers to app_motor.o(.text.Motion_Ctrl) for Motion_Ctrl
    bsp_infrared_light.o(.text.IR_Open_run) refers to bsp_infrared_light.o(.bss.Light_PID.IRLight_Integral) for [Anonymous Symbol]
    bsp_infrared_light.o(.text.IR_Open_run) refers to bsp_infrared_light.o(.bss.pid_output_IRL) for pid_output_IRL
    bsp_infrared_light.o(.ARM.exidx.text.IR_Open_run) refers to bsp_infrared_light.o(.text.IR_Open_run) for [Anonymous Symbol]
    bsp_infrared_light.o(.ARM.exidx.text.ADC_Init) refers to bsp_infrared_light.o(.text.ADC_Init) for [Anonymous Symbol]
    bsp_infrared_light.o(.text.Get_ADC_Value) refers to bsp_infrared_light.o(.bss.gCheckADC) for gCheckADC
    bsp_infrared_light.o(.text.Get_ADC_Value) refers to bsp_infrared_light.o(.bss.gIRLeft) for gIRLeft
    bsp_infrared_light.o(.text.Get_ADC_Value) refers to bsp_infrared_light.o(.bss.gIRRight) for gIRRight
    bsp_infrared_light.o(.text.Get_ADC_Value) refers to bsp_infrared_light.o(.bss.gLightLeft) for gLightLeft
    bsp_infrared_light.o(.text.Get_ADC_Value) refers to bsp_infrared_light.o(.bss.gLightRight) for gLightRight
    bsp_infrared_light.o(.text.Get_ADC_Value) refers to bsp_infrared_light.o(.bss.gvol) for gvol
    bsp_infrared_light.o(.ARM.exidx.text.Get_ADC_Value) refers to bsp_infrared_light.o(.text.Get_ADC_Value) for [Anonymous Symbol]
    bsp_infrared_light.o(.text.get_light_distance) refers to bsp_ultrasonic.o(.text.Hcsr04GetLength) for Hcsr04GetLength
    bsp_infrared_light.o(.text.get_light_distance) refers to ffixi.o(.text) for __aeabi_f2iz
    bsp_infrared_light.o(.text.get_light_distance) refers to bsp_motor.o(.text.Motor_Run) for Motor_Run
    bsp_infrared_light.o(.text.get_light_distance) refers to bsp_motor.o(.text.Motor_Back) for Motor_Back
    bsp_infrared_light.o(.text.get_light_distance) refers to delay.o(.text.delay_ms) for delay_ms
    bsp_infrared_light.o(.text.get_light_distance) refers to bsp_motor.o(.text.Motor_Left) for Motor_Left
    bsp_infrared_light.o(.text.get_light_distance) refers to bsp_motor.o(.text.Motor_Right) for Motor_Right
    bsp_infrared_light.o(.text.get_light_distance) refers to bsp_infrared_light.o(.bss.gCheckADC) for gCheckADC
    bsp_infrared_light.o(.text.get_light_distance) refers to bsp_infrared_light.o(.bss.gIRLeft) for gIRLeft
    bsp_infrared_light.o(.text.get_light_distance) refers to bsp_infrared_light.o(.bss.gIRRight) for gIRRight
    bsp_infrared_light.o(.text.get_light_distance) refers to bsp_infrared_light.o(.bss.gLightLeft) for gLightLeft
    bsp_infrared_light.o(.text.get_light_distance) refers to bsp_infrared_light.o(.bss.gLightRight) for gLightRight
    bsp_infrared_light.o(.text.get_light_distance) refers to bsp_infrared_light.o(.bss.gvol) for gvol
    bsp_infrared_light.o(.ARM.exidx.text.get_light_distance) refers to bsp_infrared_light.o(.text.get_light_distance) for [Anonymous Symbol]
    bsp_infrared_light.o(.text.ADC0_IRQHandler) refers to bsp_infrared_light.o(.bss.gCheckADC) for gCheckADC
    bsp_infrared_light.o(.ARM.exidx.text.ADC0_IRQHandler) refers to bsp_infrared_light.o(.text.ADC0_IRQHandler) for [Anonymous Symbol]
    bsp_ir_receiver.o(.text) refers (Special) to _printf_hex_int.o(.text) for _printf_longlong_hex
    bsp_ir_receiver.o(.text) refers (Special) to _printf_percent.o(.ARM.Collect$$_printf_percent$$00000000) for _printf_percent
    bsp_ir_receiver.o(.text) refers (Special) to _printf_x.o(.ARM.Collect$$_printf_percent$$0000000C) for _printf_x
    bsp_ir_receiver.o(.text.infrared_config) refers (Special) to _printf_hex_int.o(.text) for _printf_longlong_hex
    bsp_ir_receiver.o(.text.infrared_config) refers (Special) to _printf_percent.o(.ARM.Collect$$_printf_percent$$00000000) for _printf_percent
    bsp_ir_receiver.o(.text.infrared_config) refers (Special) to _printf_x.o(.ARM.Collect$$_printf_percent$$0000000C) for _printf_x
    bsp_ir_receiver.o(.ARM.exidx.text.infrared_config) refers (Special) to _printf_hex_int.o(.text) for _printf_longlong_hex
    bsp_ir_receiver.o(.ARM.exidx.text.infrared_config) refers (Special) to _printf_percent.o(.ARM.Collect$$_printf_percent$$00000000) for _printf_percent
    bsp_ir_receiver.o(.ARM.exidx.text.infrared_config) refers (Special) to _printf_x.o(.ARM.Collect$$_printf_percent$$0000000C) for _printf_x
    bsp_ir_receiver.o(.ARM.exidx.text.infrared_config) refers to bsp_ir_receiver.o(.text.infrared_config) for [Anonymous Symbol]
    bsp_ir_receiver.o(.text.get_infrared_low_time) refers (Special) to _printf_hex_int.o(.text) for _printf_longlong_hex
    bsp_ir_receiver.o(.text.get_infrared_low_time) refers (Special) to _printf_percent.o(.ARM.Collect$$_printf_percent$$00000000) for _printf_percent
    bsp_ir_receiver.o(.text.get_infrared_low_time) refers (Special) to _printf_x.o(.ARM.Collect$$_printf_percent$$0000000C) for _printf_x
    bsp_ir_receiver.o(.text.get_infrared_low_time) refers to delay.o(.text.delay_us) for delay_us
    bsp_ir_receiver.o(.ARM.exidx.text.get_infrared_low_time) refers (Special) to _printf_hex_int.o(.text) for _printf_longlong_hex
    bsp_ir_receiver.o(.ARM.exidx.text.get_infrared_low_time) refers (Special) to _printf_percent.o(.ARM.Collect$$_printf_percent$$00000000) for _printf_percent
    bsp_ir_receiver.o(.ARM.exidx.text.get_infrared_low_time) refers (Special) to _printf_x.o(.ARM.Collect$$_printf_percent$$0000000C) for _printf_x
    bsp_ir_receiver.o(.ARM.exidx.text.get_infrared_low_time) refers to bsp_ir_receiver.o(.text.get_infrared_low_time) for [Anonymous Symbol]
    bsp_ir_receiver.o(.text.get_infrared_high_time) refers (Special) to _printf_hex_int.o(.text) for _printf_longlong_hex
    bsp_ir_receiver.o(.text.get_infrared_high_time) refers (Special) to _printf_percent.o(.ARM.Collect$$_printf_percent$$00000000) for _printf_percent
    bsp_ir_receiver.o(.text.get_infrared_high_time) refers (Special) to _printf_x.o(.ARM.Collect$$_printf_percent$$0000000C) for _printf_x
    bsp_ir_receiver.o(.text.get_infrared_high_time) refers to delay.o(.text.delay_us) for delay_us
    bsp_ir_receiver.o(.ARM.exidx.text.get_infrared_high_time) refers (Special) to _printf_hex_int.o(.text) for _printf_longlong_hex
    bsp_ir_receiver.o(.ARM.exidx.text.get_infrared_high_time) refers (Special) to _printf_percent.o(.ARM.Collect$$_printf_percent$$00000000) for _printf_percent
    bsp_ir_receiver.o(.ARM.exidx.text.get_infrared_high_time) refers (Special) to _printf_x.o(.ARM.Collect$$_printf_percent$$0000000C) for _printf_x
    bsp_ir_receiver.o(.ARM.exidx.text.get_infrared_high_time) refers to bsp_ir_receiver.o(.text.get_infrared_high_time) for [Anonymous Symbol]
    bsp_ir_receiver.o(.text.guide_and_repeat_code_judgment) refers (Special) to _printf_hex_int.o(.text) for _printf_longlong_hex
    bsp_ir_receiver.o(.text.guide_and_repeat_code_judgment) refers (Special) to _printf_percent.o(.ARM.Collect$$_printf_percent$$00000000) for _printf_percent
    bsp_ir_receiver.o(.text.guide_and_repeat_code_judgment) refers (Special) to _printf_x.o(.ARM.Collect$$_printf_percent$$0000000C) for _printf_x
    bsp_ir_receiver.o(.text.guide_and_repeat_code_judgment) refers to delay.o(.text.delay_us) for delay_us
    bsp_ir_receiver.o(.ARM.exidx.text.guide_and_repeat_code_judgment) refers (Special) to _printf_hex_int.o(.text) for _printf_longlong_hex
    bsp_ir_receiver.o(.ARM.exidx.text.guide_and_repeat_code_judgment) refers (Special) to _printf_percent.o(.ARM.Collect$$_printf_percent$$00000000) for _printf_percent
    bsp_ir_receiver.o(.ARM.exidx.text.guide_and_repeat_code_judgment) refers (Special) to _printf_x.o(.ARM.Collect$$_printf_percent$$0000000C) for _printf_x
    bsp_ir_receiver.o(.ARM.exidx.text.guide_and_repeat_code_judgment) refers to bsp_ir_receiver.o(.text.guide_and_repeat_code_judgment) for [Anonymous Symbol]
    bsp_ir_receiver.o(.text.infrared_data_true_judgment) refers (Special) to _printf_hex_int.o(.text) for _printf_longlong_hex
    bsp_ir_receiver.o(.text.infrared_data_true_judgment) refers (Special) to _printf_percent.o(.ARM.Collect$$_printf_percent$$00000000) for _printf_percent
    bsp_ir_receiver.o(.text.infrared_data_true_judgment) refers (Special) to _printf_x.o(.ARM.Collect$$_printf_percent$$0000000C) for _printf_x
    bsp_ir_receiver.o(.text.infrared_data_true_judgment) refers to noretval__2printf.o(.text) for __2printf
    bsp_ir_receiver.o(.text.infrared_data_true_judgment) refers to bsp_ir_receiver.o(.rodata.str1.1) for [Anonymous Symbol]
    bsp_ir_receiver.o(.text.infrared_data_true_judgment) refers to bsp_ir_receiver.o(.bss.InfraredData) for InfraredData
    bsp_ir_receiver.o(.ARM.exidx.text.infrared_data_true_judgment) refers (Special) to _printf_hex_int.o(.text) for _printf_longlong_hex
    bsp_ir_receiver.o(.ARM.exidx.text.infrared_data_true_judgment) refers (Special) to _printf_percent.o(.ARM.Collect$$_printf_percent$$00000000) for _printf_percent
    bsp_ir_receiver.o(.ARM.exidx.text.infrared_data_true_judgment) refers (Special) to _printf_x.o(.ARM.Collect$$_printf_percent$$0000000C) for _printf_x
    bsp_ir_receiver.o(.ARM.exidx.text.infrared_data_true_judgment) refers to bsp_ir_receiver.o(.text.infrared_data_true_judgment) for [Anonymous Symbol]
    bsp_ir_receiver.o(.text.receiving_infrared_data) refers (Special) to _printf_hex_int.o(.text) for _printf_longlong_hex
    bsp_ir_receiver.o(.text.receiving_infrared_data) refers (Special) to _printf_percent.o(.ARM.Collect$$_printf_percent$$00000000) for _printf_percent
    bsp_ir_receiver.o(.text.receiving_infrared_data) refers (Special) to _printf_x.o(.ARM.Collect$$_printf_percent$$0000000C) for _printf_x
    bsp_ir_receiver.o(.text.receiving_infrared_data) refers to delay.o(.text.delay_us) for delay_us
    bsp_ir_receiver.o(.text.receiving_infrared_data) refers to noretval__2printf.o(.text) for __2printf
    bsp_ir_receiver.o(.text.receiving_infrared_data) refers to bsp_ir_receiver.o(.rodata.str1.1) for [Anonymous Symbol]
    bsp_ir_receiver.o(.text.receiving_infrared_data) refers to bsp_ir_receiver.o(.bss.InfraredData) for InfraredData
    bsp_ir_receiver.o(.ARM.exidx.text.receiving_infrared_data) refers (Special) to _printf_hex_int.o(.text) for _printf_longlong_hex
    bsp_ir_receiver.o(.ARM.exidx.text.receiving_infrared_data) refers (Special) to _printf_percent.o(.ARM.Collect$$_printf_percent$$00000000) for _printf_percent
    bsp_ir_receiver.o(.ARM.exidx.text.receiving_infrared_data) refers (Special) to _printf_x.o(.ARM.Collect$$_printf_percent$$0000000C) for _printf_x
    bsp_ir_receiver.o(.ARM.exidx.text.receiving_infrared_data) refers to bsp_ir_receiver.o(.text.receiving_infrared_data) for [Anonymous Symbol]
    bsp_ir_receiver.o(.text.get_infrared_command) refers (Special) to _printf_hex_int.o(.text) for _printf_longlong_hex
    bsp_ir_receiver.o(.text.get_infrared_command) refers (Special) to _printf_percent.o(.ARM.Collect$$_printf_percent$$00000000) for _printf_percent
    bsp_ir_receiver.o(.text.get_infrared_command) refers (Special) to _printf_x.o(.ARM.Collect$$_printf_percent$$0000000C) for _printf_x
    bsp_ir_receiver.o(.text.get_infrared_command) refers to bsp_ir_receiver.o(.bss.InfraredData) for InfraredData
    bsp_ir_receiver.o(.ARM.exidx.text.get_infrared_command) refers (Special) to _printf_hex_int.o(.text) for _printf_longlong_hex
    bsp_ir_receiver.o(.ARM.exidx.text.get_infrared_command) refers (Special) to _printf_percent.o(.ARM.Collect$$_printf_percent$$00000000) for _printf_percent
    bsp_ir_receiver.o(.ARM.exidx.text.get_infrared_command) refers (Special) to _printf_x.o(.ARM.Collect$$_printf_percent$$0000000C) for _printf_x
    bsp_ir_receiver.o(.ARM.exidx.text.get_infrared_command) refers to bsp_ir_receiver.o(.text.get_infrared_command) for [Anonymous Symbol]
    bsp_ir_receiver.o(.text.clear_infrared_command) refers (Special) to _printf_hex_int.o(.text) for _printf_longlong_hex
    bsp_ir_receiver.o(.text.clear_infrared_command) refers (Special) to _printf_percent.o(.ARM.Collect$$_printf_percent$$00000000) for _printf_percent
    bsp_ir_receiver.o(.text.clear_infrared_command) refers (Special) to _printf_x.o(.ARM.Collect$$_printf_percent$$0000000C) for _printf_x
    bsp_ir_receiver.o(.text.clear_infrared_command) refers to bsp_ir_receiver.o(.bss.InfraredData) for InfraredData
    bsp_ir_receiver.o(.ARM.exidx.text.clear_infrared_command) refers (Special) to _printf_hex_int.o(.text) for _printf_longlong_hex
    bsp_ir_receiver.o(.ARM.exidx.text.clear_infrared_command) refers (Special) to _printf_percent.o(.ARM.Collect$$_printf_percent$$00000000) for _printf_percent
    bsp_ir_receiver.o(.ARM.exidx.text.clear_infrared_command) refers (Special) to _printf_x.o(.ARM.Collect$$_printf_percent$$0000000C) for _printf_x
    bsp_ir_receiver.o(.ARM.exidx.text.clear_infrared_command) refers to bsp_ir_receiver.o(.text.clear_infrared_command) for [Anonymous Symbol]
    bsp_ir_receiver.o(.rodata.str1.1) refers (Special) to _printf_hex_int.o(.text) for _printf_longlong_hex
    bsp_ir_receiver.o(.rodata.str1.1) refers (Special) to _printf_percent.o(.ARM.Collect$$_printf_percent$$00000000) for _printf_percent
    bsp_ir_receiver.o(.rodata.str1.1) refers (Special) to _printf_x.o(.ARM.Collect$$_printf_percent$$0000000C) for _printf_x
    bsp_ir_receiver.o(.bss.InfraredData) refers (Special) to _printf_hex_int.o(.text) for _printf_longlong_hex
    bsp_ir_receiver.o(.bss.InfraredData) refers (Special) to _printf_percent.o(.ARM.Collect$$_printf_percent$$00000000) for _printf_percent
    bsp_ir_receiver.o(.bss.InfraredData) refers (Special) to _printf_x.o(.ARM.Collect$$_printf_percent$$0000000C) for _printf_x
    bsp_motor.o(.ARM.exidx.text.Init_Motor_PWM) refers to bsp_motor.o(.text.Init_Motor_PWM) for [Anonymous Symbol]
    bsp_motor.o(.ARM.exidx.text.speed_limit) refers to bsp_motor.o(.text.speed_limit) for [Anonymous Symbol]
    bsp_motor.o(.ARM.exidx.text.myabs) refers to bsp_motor.o(.text.myabs) for [Anonymous Symbol]
    bsp_motor.o(.text.PWM_Control_Car) refers to dl_timer.o(.text.DL_Timer_setCaptureCompareValue) for DL_Timer_setCaptureCompareValue
    bsp_motor.o(.ARM.exidx.text.PWM_Control_Car) refers to bsp_motor.o(.text.PWM_Control_Car) for [Anonymous Symbol]
    bsp_motor.o(.text.L1_control) refers to dl_timer.o(.text.DL_Timer_setCaptureCompareValue) for DL_Timer_setCaptureCompareValue
    bsp_motor.o(.ARM.exidx.text.L1_control) refers to bsp_motor.o(.text.L1_control) for [Anonymous Symbol]
    bsp_motor.o(.text.R1_control) refers to dl_timer.o(.text.DL_Timer_setCaptureCompareValue) for DL_Timer_setCaptureCompareValue
    bsp_motor.o(.ARM.exidx.text.R1_control) refers to bsp_motor.o(.text.R1_control) for [Anonymous Symbol]
    bsp_motor.o(.text.Motor_Stop) refers to dl_timer.o(.text.DL_Timer_setCaptureCompareValue) for DL_Timer_setCaptureCompareValue
    bsp_motor.o(.ARM.exidx.text.Motor_Stop) refers to bsp_motor.o(.text.Motor_Stop) for [Anonymous Symbol]
    bsp_motor.o(.text.Motor_Run) refers to ffixi.o(.text) for __aeabi_f2iz
    bsp_motor.o(.text.Motor_Run) refers to dl_timer.o(.text.DL_Timer_setCaptureCompareValue) for DL_Timer_setCaptureCompareValue
    bsp_motor.o(.ARM.exidx.text.Motor_Run) refers to bsp_motor.o(.text.Motor_Run) for [Anonymous Symbol]
    bsp_motor.o(.text.Motor_Back) refers to dl_timer.o(.text.DL_Timer_setCaptureCompareValue) for DL_Timer_setCaptureCompareValue
    bsp_motor.o(.text.Motor_Back) refers to ffixi.o(.text) for __aeabi_f2iz
    bsp_motor.o(.ARM.exidx.text.Motor_Back) refers to bsp_motor.o(.text.Motor_Back) for [Anonymous Symbol]
    bsp_motor.o(.text.Motor_Left) refers to dl_timer.o(.text.DL_Timer_setCaptureCompareValue) for DL_Timer_setCaptureCompareValue
    bsp_motor.o(.text.Motor_Left) refers to ffixi.o(.text) for __aeabi_f2iz
    bsp_motor.o(.text.Motor_Left) refers to delay.o(.text.delay_ms) for delay_ms
    bsp_motor.o(.ARM.exidx.text.Motor_Left) refers to bsp_motor.o(.text.Motor_Left) for [Anonymous Symbol]
    bsp_motor.o(.text.Motor_Right) refers to ffixi.o(.text) for __aeabi_f2iz
    bsp_motor.o(.text.Motor_Right) refers to dl_timer.o(.text.DL_Timer_setCaptureCompareValue) for DL_Timer_setCaptureCompareValue
    bsp_motor.o(.text.Motor_Right) refers to delay.o(.text.delay_ms) for delay_ms
    bsp_motor.o(.ARM.exidx.text.Motor_Right) refers to bsp_motor.o(.text.Motor_Right) for [Anonymous Symbol]
    bsp_encoder.o(.text.encoder_init) refers to bsp_timer.o(.text.Timer_20ms_Init) for Timer_20ms_Init
    bsp_encoder.o(.ARM.exidx.text.encoder_init) refers to bsp_encoder.o(.text.encoder_init) for [Anonymous Symbol]
    bsp_encoder.o(.text.get_encoderL_dir) refers to bsp_encoder.o(.bss.motorL_encoder) for [Anonymous Symbol]
    bsp_encoder.o(.ARM.exidx.text.get_encoderL_dir) refers to bsp_encoder.o(.text.get_encoderL_dir) for [Anonymous Symbol]
    bsp_encoder.o(.text.get_encoderR_dir) refers to bsp_encoder.o(.bss.motorR_encoder) for [Anonymous Symbol]
    bsp_encoder.o(.ARM.exidx.text.get_encoderR_dir) refers to bsp_encoder.o(.text.get_encoderR_dir) for [Anonymous Symbol]
    bsp_encoder.o(.text.Encoder_Get_ALL) refers to bsp_encoder.o(.bss.motorL_encoder) for [Anonymous Symbol]
    bsp_encoder.o(.text.Encoder_Get_ALL) refers to bsp_encoder.o(.bss.motorR_encoder) for [Anonymous Symbol]
    bsp_encoder.o(.ARM.exidx.text.Encoder_Get_ALL) refers to bsp_encoder.o(.text.Encoder_Get_ALL) for [Anonymous Symbol]
    bsp_encoder.o(.text.Encoder_Get_Temp) refers to bsp_encoder.o(.bss.motorL_encoder) for [Anonymous Symbol]
    bsp_encoder.o(.text.Encoder_Get_Temp) refers to bsp_encoder.o(.bss.motorR_encoder) for [Anonymous Symbol]
    bsp_encoder.o(.ARM.exidx.text.Encoder_Get_Temp) refers to bsp_encoder.o(.text.Encoder_Get_Temp) for [Anonymous Symbol]
    bsp_encoder.o(.text.encoder_update) refers to bsp_encoder.o(.bss.motorL_encoder) for [Anonymous Symbol]
    bsp_encoder.o(.text.encoder_update) refers to bsp_encoder.o(.bss.motorR_encoder) for [Anonymous Symbol]
    bsp_encoder.o(.ARM.exidx.text.encoder_update) refers to bsp_encoder.o(.text.encoder_update) for [Anonymous Symbol]
    bsp_encoder.o(.text.GROUP1_IRQHandler) refers to bsp_ir_receiver.o(.text.receiving_infrared_data) for receiving_infrared_data
    bsp_encoder.o(.text.GROUP1_IRQHandler) refers to bsp_encoder.o(.bss.motorL_encoder) for [Anonymous Symbol]
    bsp_encoder.o(.text.GROUP1_IRQHandler) refers to bsp_encoder.o(.bss.motorR_encoder) for [Anonymous Symbol]
    bsp_encoder.o(.ARM.exidx.text.GROUP1_IRQHandler) refers to bsp_encoder.o(.text.GROUP1_IRQHandler) for [Anonymous Symbol]
    bsp_timer.o(.ARM.exidx.text.Timer_20ms_Init) refers to bsp_timer.o(.text.Timer_20ms_Init) for [Anonymous Symbol]
    bsp_timer.o(.text.TIMG0_IRQHandler) refers to bsp_encoder.o(.text.encoder_update) for encoder_update
    bsp_timer.o(.text.TIMG0_IRQHandler) refers to app_motor.o(.text.Motion_Handle) for Motion_Handle
    bsp_timer.o(.text.TIMG0_IRQHandler) refers to bsp_timer.o(.bss.gled_cnt) for gled_cnt
    bsp_timer.o(.ARM.exidx.text.TIMG0_IRQHandler) refers to bsp_timer.o(.text.TIMG0_IRQHandler) for [Anonymous Symbol]
    oled.o(.text.OLED_ColorTurn) refers to oled.o(.text.OLED_WR_Byte) for OLED_WR_Byte
    oled.o(.ARM.exidx.text.OLED_ColorTurn) refers to oled.o(.text.OLED_ColorTurn) for [Anonymous Symbol]
    oled.o(.text.OLED_WR_Byte) refers to delay.o(.text.delay_us) for delay_us
    oled.o(.text.OLED_WR_Byte) refers to oled.o(.text.Send_Byte) for Send_Byte
    oled.o(.ARM.exidx.text.OLED_WR_Byte) refers to oled.o(.text.OLED_WR_Byte) for [Anonymous Symbol]
    oled.o(.text.OLED_DisplayTurn) refers to oled.o(.text.OLED_WR_Byte) for OLED_WR_Byte
    oled.o(.ARM.exidx.text.OLED_DisplayTurn) refers to oled.o(.text.OLED_DisplayTurn) for [Anonymous Symbol]
    oled.o(.text.IIC_delay) refers to delay.o(.text.delay_us) for delay_us
    oled.o(.ARM.exidx.text.IIC_delay) refers to oled.o(.text.IIC_delay) for [Anonymous Symbol]
    oled.o(.text.I2C_Start) refers to delay.o(.text.delay_us) for delay_us
    oled.o(.ARM.exidx.text.I2C_Start) refers to oled.o(.text.I2C_Start) for [Anonymous Symbol]
    oled.o(.text.I2C_Stop) refers to delay.o(.text.delay_us) for delay_us
    oled.o(.ARM.exidx.text.I2C_Stop) refers to oled.o(.text.I2C_Stop) for [Anonymous Symbol]
    oled.o(.text.I2C_WaitAck) refers to delay.o(.text.delay_us) for delay_us
    oled.o(.ARM.exidx.text.I2C_WaitAck) refers to oled.o(.text.I2C_WaitAck) for [Anonymous Symbol]
    oled.o(.text.Send_Byte) refers to delay.o(.text.delay_us) for delay_us
    oled.o(.ARM.exidx.text.Send_Byte) refers to oled.o(.text.Send_Byte) for [Anonymous Symbol]
    oled.o(.text.OLED_DisPlay_On) refers to oled.o(.text.OLED_WR_Byte) for OLED_WR_Byte
    oled.o(.ARM.exidx.text.OLED_DisPlay_On) refers to oled.o(.text.OLED_DisPlay_On) for [Anonymous Symbol]
    oled.o(.text.OLED_DisPlay_Off) refers to oled.o(.text.OLED_WR_Byte) for OLED_WR_Byte
    oled.o(.ARM.exidx.text.OLED_DisPlay_Off) refers to oled.o(.text.OLED_DisPlay_Off) for [Anonymous Symbol]
    oled.o(.text.OLED_Refresh) refers to oled.o(.text.OLED_WR_Byte) for OLED_WR_Byte
    oled.o(.text.OLED_Refresh) refers to delay.o(.text.delay_us) for delay_us
    oled.o(.text.OLED_Refresh) refers to oled.o(.text.Send_Byte) for Send_Byte
    oled.o(.text.OLED_Refresh) refers to oled.o(.bss.OLED_GRAM) for OLED_GRAM
    oled.o(.ARM.exidx.text.OLED_Refresh) refers to oled.o(.text.OLED_Refresh) for [Anonymous Symbol]
    oled.o(.text.OLED_Clear) refers to oled.o(.text.OLED_Refresh) for OLED_Refresh
    oled.o(.text.OLED_Clear) refers to oled.o(.bss.OLED_GRAM) for OLED_GRAM
    oled.o(.ARM.exidx.text.OLED_Clear) refers to oled.o(.text.OLED_Clear) for [Anonymous Symbol]
    oled.o(.text.OLED_DrawPoint) refers to oled.o(.bss.OLED_GRAM) for OLED_GRAM
    oled.o(.ARM.exidx.text.OLED_DrawPoint) refers to oled.o(.text.OLED_DrawPoint) for [Anonymous Symbol]
    oled.o(.text.OLED_DrawLine) refers to oled.o(.bss.OLED_GRAM) for OLED_GRAM
    oled.o(.ARM.exidx.text.OLED_DrawLine) refers to oled.o(.text.OLED_DrawLine) for [Anonymous Symbol]
    oled.o(.text.OLED_DrawCircle) refers to oled.o(.bss.OLED_GRAM) for OLED_GRAM
    oled.o(.ARM.exidx.text.OLED_DrawCircle) refers to oled.o(.text.OLED_DrawCircle) for [Anonymous Symbol]
    oled.o(.text.OLED_ShowChar) refers to oled.o(.rodata.asc2_2412) for asc2_2412
    oled.o(.text.OLED_ShowChar) refers to oled.o(.rodata.asc2_1608) for asc2_1608
    oled.o(.text.OLED_ShowChar) refers to oled.o(.rodata.asc2_1206) for asc2_1206
    oled.o(.text.OLED_ShowChar) refers to oled.o(.rodata.asc2_0806) for asc2_0806
    oled.o(.text.OLED_ShowChar) refers to oled.o(.bss.OLED_GRAM) for OLED_GRAM
    oled.o(.ARM.exidx.text.OLED_ShowChar) refers to oled.o(.text.OLED_ShowChar) for [Anonymous Symbol]
    oled.o(.text.OLED_ShowString) refers to oled.o(.text.OLED_ShowChar) for OLED_ShowChar
    oled.o(.ARM.exidx.text.OLED_ShowString) refers to oled.o(.text.OLED_ShowString) for [Anonymous Symbol]
    oled.o(.ARM.exidx.text.OLED_Pow) refers to oled.o(.text.OLED_Pow) for [Anonymous Symbol]
    oled.o(.text.OLED_ShowNum) refers to oled.o(.text.OLED_ShowChar) for OLED_ShowChar
    oled.o(.text.OLED_ShowNum) refers to aeabi_sdivfast.o(.text_divfast) for __aeabi_uidiv
    oled.o(.text.OLED_ShowNum) refers to aeabi_sdivfast.o(.text) for __aeabi_uidivmod
    oled.o(.ARM.exidx.text.OLED_ShowNum) refers to oled.o(.text.OLED_ShowNum) for [Anonymous Symbol]
    oled.o(.text.OLED_ShowChinese) refers to oled.o(.rodata.Hzk4) for Hzk4
    oled.o(.text.OLED_ShowChinese) refers to oled.o(.rodata.Hzk3) for Hzk3
    oled.o(.text.OLED_ShowChinese) refers to oled.o(.rodata.Hzk2) for Hzk2
    oled.o(.text.OLED_ShowChinese) refers to oled.o(.rodata.Hzk1) for Hzk1
    oled.o(.text.OLED_ShowChinese) refers to oled.o(.bss.OLED_GRAM) for OLED_GRAM
    oled.o(.ARM.exidx.text.OLED_ShowChinese) refers to oled.o(.text.OLED_ShowChinese) for [Anonymous Symbol]
    oled.o(.text.OLED_ScrollDisplay) refers to oled.o(.text.OLED_Refresh) for OLED_Refresh
    oled.o(.text.OLED_ScrollDisplay) refers to oled.o(.rodata.Hzk1) for Hzk1
    oled.o(.text.OLED_ScrollDisplay) refers to oled.o(.bss.OLED_GRAM) for OLED_GRAM
    oled.o(.ARM.exidx.text.OLED_ScrollDisplay) refers to oled.o(.text.OLED_ScrollDisplay) for [Anonymous Symbol]
    oled.o(.text.OLED_ShowPicture) refers to oled.o(.bss.OLED_GRAM) for OLED_GRAM
    oled.o(.ARM.exidx.text.OLED_ShowPicture) refers to oled.o(.text.OLED_ShowPicture) for [Anonymous Symbol]
    oled.o(.text.OLED_Init) refers to delay.o(.text.delay_ms) for delay_ms
    oled.o(.text.OLED_Init) refers to oled.o(.text.OLED_WR_Byte) for OLED_WR_Byte
    oled.o(.text.OLED_Init) refers to oled.o(.text.OLED_Refresh) for OLED_Refresh
    oled.o(.text.OLED_Init) refers to oled.o(.bss.OLED_GRAM) for OLED_GRAM
    oled.o(.text.OLED_Init) refers to oled.o(.rodata.str1.1) for [Anonymous Symbol]
    oled.o(.text.OLED_Init) refers to oled.o(.rodata.asc2_0806) for asc2_0806
    oled.o(.ARM.exidx.text.OLED_Init) refers to oled.o(.text.OLED_Init) for [Anonymous Symbol]
    oled.o(.text.OLED_Draw_Line) refers to oled.o(.text.OLED_Refresh) for OLED_Refresh
    oled.o(.text.OLED_Draw_Line) refers to oled.o(.bss.OLED_GRAM) for OLED_GRAM
    oled.o(.text.OLED_Draw_Line) refers to oled.o(.rodata.asc2_0806) for asc2_0806
    oled.o(.ARM.exidx.text.OLED_Draw_Line) refers to oled.o(.text.OLED_Draw_Line) for [Anonymous Symbol]
    bsp_flash_w25q64.o(.text.W25Q64_Init) refers to delay.o(.text.delay_ms) for delay_ms
    bsp_flash_w25q64.o(.text.W25Q64_Init) refers to bsp_flash_w25q64.o(.text.Spi_Flash_ReadID) for Spi_Flash_ReadID
    bsp_flash_w25q64.o(.text.W25Q64_Init) refers to bsp_flash_w25q64.o(.data.SPI_FLASH_TYPE) for SPI_FLASH_TYPE
    bsp_flash_w25q64.o(.ARM.exidx.text.W25Q64_Init) refers to bsp_flash_w25q64.o(.text.W25Q64_Init) for [Anonymous Symbol]
    bsp_flash_w25q64.o(.ARM.exidx.text.Spi_Flash_ReadID) refers to bsp_flash_w25q64.o(.text.Spi_Flash_ReadID) for [Anonymous Symbol]
    bsp_flash_w25q64.o(.text.Spi_Flash_Exit4ByteMode) refers to delay.o(.text.delay_us) for delay_us
    bsp_flash_w25q64.o(.ARM.exidx.text.Spi_Flash_Exit4ByteMode) refers to bsp_flash_w25q64.o(.text.Spi_Flash_Exit4ByteMode) for [Anonymous Symbol]
    bsp_flash_w25q64.o(.ARM.exidx.text.SPI_Read_Write_Byte) refers to bsp_flash_w25q64.o(.text.SPI_Read_Write_Byte) for [Anonymous Symbol]
    bsp_flash_w25q64.o(.ARM.exidx.text.SPI_Flash_ReadSR) refers to bsp_flash_w25q64.o(.text.SPI_Flash_ReadSR) for [Anonymous Symbol]
    bsp_flash_w25q64.o(.ARM.exidx.text.Spi_Flash_Read_SR) refers to bsp_flash_w25q64.o(.text.Spi_Flash_Read_SR) for [Anonymous Symbol]
    bsp_flash_w25q64.o(.ARM.exidx.text.Spi_Flash_Write_SR) refers to bsp_flash_w25q64.o(.text.Spi_Flash_Write_SR) for [Anonymous Symbol]
    bsp_flash_w25q64.o(.ARM.exidx.text.Spi_Flash_Write_Enable) refers to bsp_flash_w25q64.o(.text.Spi_Flash_Write_Enable) for [Anonymous Symbol]
    bsp_flash_w25q64.o(.ARM.exidx.text.Spi_Flash_Write_Disable) refers to bsp_flash_w25q64.o(.text.Spi_Flash_Write_Disable) for [Anonymous Symbol]
    bsp_flash_w25q64.o(.ARM.exidx.text.Spi_Flash_ReadID_two) refers to bsp_flash_w25q64.o(.text.Spi_Flash_ReadID_two) for [Anonymous Symbol]
    bsp_flash_w25q64.o(.ARM.exidx.text.Spi_Flash_Read) refers to bsp_flash_w25q64.o(.text.Spi_Flash_Read) for [Anonymous Symbol]
    bsp_flash_w25q64.o(.ARM.exidx.text.Spi_Flash_Write_Page) refers to bsp_flash_w25q64.o(.text.Spi_Flash_Write_Page) for [Anonymous Symbol]
    bsp_flash_w25q64.o(.ARM.exidx.text.Spi_Flash_Wait_Busy) refers to bsp_flash_w25q64.o(.text.Spi_Flash_Wait_Busy) for [Anonymous Symbol]
    bsp_flash_w25q64.o(.text.Spi_Flash_Write_NoCheck) refers to bsp_flash_w25q64.o(.text.Spi_Flash_Write_Page) for Spi_Flash_Write_Page
    bsp_flash_w25q64.o(.ARM.exidx.text.Spi_Flash_Write_NoCheck) refers to bsp_flash_w25q64.o(.text.Spi_Flash_Write_NoCheck) for [Anonymous Symbol]
    bsp_flash_w25q64.o(.text.Spi_Flash_Write) refers to bsp_flash_w25q64.o(.text.Spi_Flash_Read) for Spi_Flash_Read
    bsp_flash_w25q64.o(.text.Spi_Flash_Write) refers to bsp_flash_w25q64.o(.text.Spi_Flash_Write_Page) for Spi_Flash_Write_Page
    bsp_flash_w25q64.o(.text.Spi_Flash_Write) refers to bsp_flash_w25q64.o(.text.Spi_Flash_Erase_Sector) for Spi_Flash_Erase_Sector
    bsp_flash_w25q64.o(.text.Spi_Flash_Write) refers to bsp_flash_w25q64.o(.bss.SPI_FLASH_BUF) for SPI_FLASH_BUF
    bsp_flash_w25q64.o(.ARM.exidx.text.Spi_Flash_Write) refers to bsp_flash_w25q64.o(.text.Spi_Flash_Write) for [Anonymous Symbol]
    bsp_flash_w25q64.o(.ARM.exidx.text.Spi_Flash_Erase_Sector) refers to bsp_flash_w25q64.o(.text.Spi_Flash_Erase_Sector) for [Anonymous Symbol]
    bsp_flash_w25q64.o(.ARM.exidx.text.Spi_Flash_Erase_Chip) refers to bsp_flash_w25q64.o(.text.Spi_Flash_Erase_Chip) for [Anonymous Symbol]
    bsp_flash_w25q64.o(.ARM.exidx.text.Spi_Flash_BlockErase_Sector) refers to bsp_flash_w25q64.o(.text.Spi_Flash_BlockErase_Sector) for [Anonymous Symbol]
    bsp_flash_w25q64.o(.text.Spi_Flash_Power_Down) refers to delay.o(.text.delay_ms) for delay_ms
    bsp_flash_w25q64.o(.ARM.exidx.text.Spi_Flash_Power_Down) refers to bsp_flash_w25q64.o(.text.Spi_Flash_Power_Down) for [Anonymous Symbol]
    bsp_flash_w25q64.o(.text.Spi_Flash_WAKEUP) refers to delay.o(.text.delay_ms) for delay_ms
    bsp_flash_w25q64.o(.ARM.exidx.text.Spi_Flash_WAKEUP) refers to bsp_flash_w25q64.o(.text.Spi_Flash_WAKEUP) for [Anonymous Symbol]
    bsp_ultrasonic.o(.text) refers (Special) to _printf_d.o(.ARM.Collect$$_printf_percent$$00000009) for _printf_d
    bsp_ultrasonic.o(.text) refers (Special) to _printf_dec.o(.text) for _printf_int_dec
    bsp_ultrasonic.o(.text) refers (Special) to _printf_percent.o(.ARM.Collect$$_printf_percent$$00000000) for _printf_percent
    bsp_ultrasonic.o(.text.Ultrasonic_Init) refers (Special) to _printf_d.o(.ARM.Collect$$_printf_percent$$00000009) for _printf_d
    bsp_ultrasonic.o(.text.Ultrasonic_Init) refers (Special) to _printf_dec.o(.text) for _printf_int_dec
    bsp_ultrasonic.o(.text.Ultrasonic_Init) refers (Special) to _printf_percent.o(.ARM.Collect$$_printf_percent$$00000000) for _printf_percent
    bsp_ultrasonic.o(.ARM.exidx.text.Ultrasonic_Init) refers (Special) to _printf_d.o(.ARM.Collect$$_printf_percent$$00000009) for _printf_d
    bsp_ultrasonic.o(.ARM.exidx.text.Ultrasonic_Init) refers (Special) to _printf_dec.o(.text) for _printf_int_dec
    bsp_ultrasonic.o(.ARM.exidx.text.Ultrasonic_Init) refers (Special) to _printf_percent.o(.ARM.Collect$$_printf_percent$$00000000) for _printf_percent
    bsp_ultrasonic.o(.ARM.exidx.text.Ultrasonic_Init) refers to bsp_ultrasonic.o(.text.Ultrasonic_Init) for [Anonymous Symbol]
    bsp_ultrasonic.o(.text.Open_Timer) refers (Special) to _printf_d.o(.ARM.Collect$$_printf_percent$$00000009) for _printf_d
    bsp_ultrasonic.o(.text.Open_Timer) refers (Special) to _printf_dec.o(.text) for _printf_int_dec
    bsp_ultrasonic.o(.text.Open_Timer) refers (Special) to _printf_percent.o(.ARM.Collect$$_printf_percent$$00000000) for _printf_percent
    bsp_ultrasonic.o(.text.Open_Timer) refers to bsp_ultrasonic.o(.bss.msHcCount) for msHcCount
    bsp_ultrasonic.o(.ARM.exidx.text.Open_Timer) refers (Special) to _printf_d.o(.ARM.Collect$$_printf_percent$$00000009) for _printf_d
    bsp_ultrasonic.o(.ARM.exidx.text.Open_Timer) refers (Special) to _printf_dec.o(.text) for _printf_int_dec
    bsp_ultrasonic.o(.ARM.exidx.text.Open_Timer) refers (Special) to _printf_percent.o(.ARM.Collect$$_printf_percent$$00000000) for _printf_percent
    bsp_ultrasonic.o(.ARM.exidx.text.Open_Timer) refers to bsp_ultrasonic.o(.text.Open_Timer) for [Anonymous Symbol]
    bsp_ultrasonic.o(.text.Get_TIMER_Count) refers (Special) to _printf_d.o(.ARM.Collect$$_printf_percent$$00000009) for _printf_d
    bsp_ultrasonic.o(.text.Get_TIMER_Count) refers (Special) to _printf_dec.o(.text) for _printf_int_dec
    bsp_ultrasonic.o(.text.Get_TIMER_Count) refers (Special) to _printf_percent.o(.ARM.Collect$$_printf_percent$$00000000) for _printf_percent
    bsp_ultrasonic.o(.text.Get_TIMER_Count) refers to delay.o(.text.delay_ms) for delay_ms
    bsp_ultrasonic.o(.text.Get_TIMER_Count) refers to bsp_ultrasonic.o(.bss.msHcCount) for msHcCount
    bsp_ultrasonic.o(.ARM.exidx.text.Get_TIMER_Count) refers (Special) to _printf_d.o(.ARM.Collect$$_printf_percent$$00000009) for _printf_d
    bsp_ultrasonic.o(.ARM.exidx.text.Get_TIMER_Count) refers (Special) to _printf_dec.o(.text) for _printf_int_dec
    bsp_ultrasonic.o(.ARM.exidx.text.Get_TIMER_Count) refers (Special) to _printf_percent.o(.ARM.Collect$$_printf_percent$$00000000) for _printf_percent
    bsp_ultrasonic.o(.ARM.exidx.text.Get_TIMER_Count) refers to bsp_ultrasonic.o(.text.Get_TIMER_Count) for [Anonymous Symbol]
    bsp_ultrasonic.o(.text.Close_Timer) refers (Special) to _printf_d.o(.ARM.Collect$$_printf_percent$$00000009) for _printf_d
    bsp_ultrasonic.o(.text.Close_Timer) refers (Special) to _printf_dec.o(.text) for _printf_int_dec
    bsp_ultrasonic.o(.text.Close_Timer) refers (Special) to _printf_percent.o(.ARM.Collect$$_printf_percent$$00000000) for _printf_percent
    bsp_ultrasonic.o(.ARM.exidx.text.Close_Timer) refers (Special) to _printf_d.o(.ARM.Collect$$_printf_percent$$00000009) for _printf_d
    bsp_ultrasonic.o(.ARM.exidx.text.Close_Timer) refers (Special) to _printf_dec.o(.text) for _printf_int_dec
    bsp_ultrasonic.o(.ARM.exidx.text.Close_Timer) refers (Special) to _printf_percent.o(.ARM.Collect$$_printf_percent$$00000000) for _printf_percent
    bsp_ultrasonic.o(.ARM.exidx.text.Close_Timer) refers to bsp_ultrasonic.o(.text.Close_Timer) for [Anonymous Symbol]
    bsp_ultrasonic.o(.text.TIMA1_IRQHandler) refers (Special) to _printf_d.o(.ARM.Collect$$_printf_percent$$00000009) for _printf_d
    bsp_ultrasonic.o(.text.TIMA1_IRQHandler) refers (Special) to _printf_dec.o(.text) for _printf_int_dec
    bsp_ultrasonic.o(.text.TIMA1_IRQHandler) refers (Special) to _printf_percent.o(.ARM.Collect$$_printf_percent$$00000000) for _printf_percent
    bsp_ultrasonic.o(.text.TIMA1_IRQHandler) refers to bsp_ultrasonic.o(.bss.msHcCount) for msHcCount
    bsp_ultrasonic.o(.ARM.exidx.text.TIMA1_IRQHandler) refers (Special) to _printf_d.o(.ARM.Collect$$_printf_percent$$00000009) for _printf_d
    bsp_ultrasonic.o(.ARM.exidx.text.TIMA1_IRQHandler) refers (Special) to _printf_dec.o(.text) for _printf_int_dec
    bsp_ultrasonic.o(.ARM.exidx.text.TIMA1_IRQHandler) refers (Special) to _printf_percent.o(.ARM.Collect$$_printf_percent$$00000000) for _printf_percent
    bsp_ultrasonic.o(.ARM.exidx.text.TIMA1_IRQHandler) refers to bsp_ultrasonic.o(.text.TIMA1_IRQHandler) for [Anonymous Symbol]
    bsp_ultrasonic.o(.text.Hcsr04GetLength) refers (Special) to _printf_d.o(.ARM.Collect$$_printf_percent$$00000009) for _printf_d
    bsp_ultrasonic.o(.text.Hcsr04GetLength) refers (Special) to _printf_dec.o(.text) for _printf_int_dec
    bsp_ultrasonic.o(.text.Hcsr04GetLength) refers (Special) to _printf_percent.o(.ARM.Collect$$_printf_percent$$00000000) for _printf_percent
    bsp_ultrasonic.o(.text.Hcsr04GetLength) refers to delay.o(.text.delay_1us) for delay_1us
    bsp_ultrasonic.o(.text.Hcsr04GetLength) refers to delay.o(.text.delay_ms) for delay_ms
    bsp_ultrasonic.o(.text.Hcsr04GetLength) refers to fflti.o(.text) for __aeabi_ui2f
    bsp_ultrasonic.o(.text.Hcsr04GetLength) refers to fdiv.o(.text) for __aeabi_fdiv
    bsp_ultrasonic.o(.text.Hcsr04GetLength) refers to faddsub.o(x$fpl$fadd) for __aeabi_fadd
    bsp_ultrasonic.o(.text.Hcsr04GetLength) refers to bsp_ultrasonic.o(.bss.t) for t
    bsp_ultrasonic.o(.text.Hcsr04GetLength) refers to bsp_ultrasonic.o(.bss.msHcCount) for msHcCount
    bsp_ultrasonic.o(.text.Hcsr04GetLength) refers to bsp_ultrasonic.o(.bss.distance) for distance
    bsp_ultrasonic.o(.ARM.exidx.text.Hcsr04GetLength) refers (Special) to _printf_d.o(.ARM.Collect$$_printf_percent$$00000009) for _printf_d
    bsp_ultrasonic.o(.ARM.exidx.text.Hcsr04GetLength) refers (Special) to _printf_dec.o(.text) for _printf_int_dec
    bsp_ultrasonic.o(.ARM.exidx.text.Hcsr04GetLength) refers (Special) to _printf_percent.o(.ARM.Collect$$_printf_percent$$00000000) for _printf_percent
    bsp_ultrasonic.o(.ARM.exidx.text.Hcsr04GetLength) refers to bsp_ultrasonic.o(.text.Hcsr04GetLength) for [Anonymous Symbol]
    bsp_ultrasonic.o(.text.get_servo_distance) refers (Special) to _printf_d.o(.ARM.Collect$$_printf_percent$$00000009) for _printf_d
    bsp_ultrasonic.o(.text.get_servo_distance) refers (Special) to _printf_dec.o(.text) for _printf_int_dec
    bsp_ultrasonic.o(.text.get_servo_distance) refers (Special) to _printf_percent.o(.ARM.Collect$$_printf_percent$$00000000) for _printf_percent
    bsp_ultrasonic.o(.text.get_servo_distance) refers to bsp_ultrasonic.o(.text.Hcsr04GetLength) for Hcsr04GetLength
    bsp_ultrasonic.o(.text.get_servo_distance) refers to ffixi.o(.text) for __aeabi_f2iz
    bsp_ultrasonic.o(.text.get_servo_distance) refers to bsp_motor.o(.text.Motor_Stop) for Motor_Stop
    bsp_ultrasonic.o(.text.get_servo_distance) refers to bsp_servo.o(.text.Set_Servo_Angle) for Set_Servo_Angle
    bsp_ultrasonic.o(.text.get_servo_distance) refers to delay.o(.text.delay_ms) for delay_ms
    bsp_ultrasonic.o(.text.get_servo_distance) refers to bsp_motor.o(.text.Motor_Back) for Motor_Back
    bsp_ultrasonic.o(.text.get_servo_distance) refers to bsp_motor.o(.text.Motor_Run) for Motor_Run
    bsp_ultrasonic.o(.text.get_servo_distance) refers to bsp_motor.o(.text.Motor_Right) for Motor_Right
    bsp_ultrasonic.o(.text.get_servo_distance) refers to bsp_motor.o(.text.Motor_Left) for Motor_Left
    bsp_ultrasonic.o(.ARM.exidx.text.get_servo_distance) refers (Special) to _printf_d.o(.ARM.Collect$$_printf_percent$$00000009) for _printf_d
    bsp_ultrasonic.o(.ARM.exidx.text.get_servo_distance) refers (Special) to _printf_dec.o(.text) for _printf_int_dec
    bsp_ultrasonic.o(.ARM.exidx.text.get_servo_distance) refers (Special) to _printf_percent.o(.ARM.Collect$$_printf_percent$$00000000) for _printf_percent
    bsp_ultrasonic.o(.ARM.exidx.text.get_servo_distance) refers to bsp_ultrasonic.o(.text.get_servo_distance) for [Anonymous Symbol]
    bsp_ultrasonic.o(.text.get_distance) refers (Special) to _printf_d.o(.ARM.Collect$$_printf_percent$$00000009) for _printf_d
    bsp_ultrasonic.o(.text.get_distance) refers (Special) to _printf_dec.o(.text) for _printf_int_dec
    bsp_ultrasonic.o(.text.get_distance) refers (Special) to _printf_percent.o(.ARM.Collect$$_printf_percent$$00000000) for _printf_percent
    bsp_ultrasonic.o(.text.get_distance) refers to bsp_infrared_light.o(.text.Get_ADC_Value) for Get_ADC_Value
    bsp_ultrasonic.o(.text.get_distance) refers to bsp_ultrasonic.o(.text.Hcsr04GetLength) for Hcsr04GetLength
    bsp_ultrasonic.o(.text.get_distance) refers to ffixi.o(.text) for __aeabi_f2iz
    bsp_ultrasonic.o(.text.get_distance) refers to noretval__2printf.o(.text) for __2printf
    bsp_ultrasonic.o(.ARM.exidx.text.get_distance) refers (Special) to _printf_d.o(.ARM.Collect$$_printf_percent$$00000009) for _printf_d
    bsp_ultrasonic.o(.ARM.exidx.text.get_distance) refers (Special) to _printf_dec.o(.text) for _printf_int_dec
    bsp_ultrasonic.o(.ARM.exidx.text.get_distance) refers (Special) to _printf_percent.o(.ARM.Collect$$_printf_percent$$00000000) for _printf_percent
    bsp_ultrasonic.o(.ARM.exidx.text.get_distance) refers to bsp_ultrasonic.o(.text.get_distance) for [Anonymous Symbol]
    bsp_ultrasonic.o(.bss.msHcCount) refers (Special) to _printf_d.o(.ARM.Collect$$_printf_percent$$00000009) for _printf_d
    bsp_ultrasonic.o(.bss.msHcCount) refers (Special) to _printf_dec.o(.text) for _printf_int_dec
    bsp_ultrasonic.o(.bss.msHcCount) refers (Special) to _printf_percent.o(.ARM.Collect$$_printf_percent$$00000000) for _printf_percent
    bsp_ultrasonic.o(.bss.distance) refers (Special) to _printf_d.o(.ARM.Collect$$_printf_percent$$00000009) for _printf_d
    bsp_ultrasonic.o(.bss.distance) refers (Special) to _printf_dec.o(.text) for _printf_int_dec
    bsp_ultrasonic.o(.bss.distance) refers (Special) to _printf_percent.o(.ARM.Collect$$_printf_percent$$00000000) for _printf_percent
    bsp_ultrasonic.o(.bss.t) refers (Special) to _printf_d.o(.ARM.Collect$$_printf_percent$$00000009) for _printf_d
    bsp_ultrasonic.o(.bss.t) refers (Special) to _printf_dec.o(.text) for _printf_int_dec
    bsp_ultrasonic.o(.bss.t) refers (Special) to _printf_percent.o(.ARM.Collect$$_printf_percent$$00000000) for _printf_percent
    bsp_servo.o(.ARM.exidx.text.servo_init) refers to bsp_servo.o(.text.servo_init) for [Anonymous Symbol]
    bsp_servo.o(.text.Set_Servo270_Angle) refers to fflti.o(.text) for __aeabi_ui2f
    bsp_servo.o(.text.Set_Servo270_Angle) refers to fdiv.o(.text) for __aeabi_fdiv
    bsp_servo.o(.text.Set_Servo270_Angle) refers to fmul.o(x$fpl$fmul) for __aeabi_fmul
    bsp_servo.o(.text.Set_Servo270_Angle) refers to faddsub.o(x$fpl$fadd) for __aeabi_fadd
    bsp_servo.o(.text.Set_Servo270_Angle) refers to ffixui.o(.text) for __aeabi_f2uiz
    bsp_servo.o(.text.Set_Servo270_Angle) refers to dl_timer.o(.text.DL_Timer_setCaptureCompareValue) for DL_Timer_setCaptureCompareValue
    bsp_servo.o(.text.Set_Servo270_Angle) refers to bsp_servo.o(.bss.Servo_Angle270) for Servo_Angle270
    bsp_servo.o(.ARM.exidx.text.Set_Servo270_Angle) refers to bsp_servo.o(.text.Set_Servo270_Angle) for [Anonymous Symbol]
    bsp_servo.o(.text.Set_Servo_Angle) refers to fflti.o(.text) for __aeabi_ui2f
    bsp_servo.o(.text.Set_Servo_Angle) refers to fdiv.o(.text) for __aeabi_fdiv
    bsp_servo.o(.text.Set_Servo_Angle) refers to fmul.o(x$fpl$fmul) for __aeabi_fmul
    bsp_servo.o(.text.Set_Servo_Angle) refers to faddsub.o(x$fpl$fadd) for __aeabi_fadd
    bsp_servo.o(.text.Set_Servo_Angle) refers to ffixui.o(.text) for __aeabi_f2uiz
    bsp_servo.o(.text.Set_Servo_Angle) refers to dl_timer.o(.text.DL_Timer_setCaptureCompareValue) for DL_Timer_setCaptureCompareValue
    bsp_servo.o(.text.Set_Servo_Angle) refers to bsp_servo.o(.bss.Servo_Angle) for Servo_Angle
    bsp_servo.o(.ARM.exidx.text.Set_Servo_Angle) refers to bsp_servo.o(.text.Set_Servo_Angle) for [Anonymous Symbol]
    bsp_servo.o(.text.Get_Servo_Angle) refers to bsp_servo.o(.bss.Servo_Angle) for Servo_Angle
    bsp_servo.o(.ARM.exidx.text.Get_Servo_Angle) refers to bsp_servo.o(.text.Get_Servo_Angle) for [Anonymous Symbol]
    bsp_servo.o(.text.Get_Servo_Angle270) refers to bsp_servo.o(.bss.Servo_Angle270) for Servo_Angle270
    bsp_servo.o(.ARM.exidx.text.Get_Servo_Angle270) refers to bsp_servo.o(.text.Get_Servo_Angle270) for [Anonymous Symbol]
    bsp_servo.o(.text.get_servo) refers to dl_timer.o(.text.DL_Timer_setCaptureCompareValue) for DL_Timer_setCaptureCompareValue
    bsp_servo.o(.text.get_servo) refers to delay.o(.text.delay_ms) for delay_ms
    bsp_servo.o(.text.get_servo) refers to bsp_servo.o(.bss.Servo_Angle) for Servo_Angle
    bsp_servo.o(.ARM.exidx.text.get_servo) refers to bsp_servo.o(.text.get_servo) for [Anonymous Symbol]
    bsp_usart2.o(.text.usart2_init) refers to bsp_usart3.o(.text.RingBuff_Init) for RingBuff_Init
    bsp_usart2.o(.text.usart2_init) refers to bsp_usart3.o(.bss.Uart2_RingBuff) for Uart2_RingBuff
    bsp_usart2.o(.ARM.exidx.text.usart2_init) refers to bsp_usart2.o(.text.usart2_init) for [Anonymous Symbol]
    bsp_usart2.o(.ARM.exidx.text.uart2_send_char) refers to bsp_usart2.o(.text.uart2_send_char) for [Anonymous Symbol]
    bsp_usart2.o(.ARM.exidx.text.uart2_send_string) refers to bsp_usart2.o(.text.uart2_send_string) for [Anonymous Symbol]
    bsp_usart2.o(.text.UART2_IRQHandler) refers to bsp_usart_voice.o(.text.Processing_Data) for Processing_Data
    bsp_usart2.o(.text.UART2_IRQHandler) refers to bsp_usart2.o(.bss.recv2_length) for recv2_length
    bsp_usart2.o(.text.UART2_IRQHandler) refers to bsp_usart2.o(.bss.recv2_buff) for recv2_buff
    bsp_usart2.o(.text.UART2_IRQHandler) refers to bsp_usart2.o(.bss.get_mode) for get_mode
    bsp_usart2.o(.text.UART2_IRQHandler) refers to bsp_usart2.o(.bss.get_v) for get_v
    bsp_usart2.o(.text.UART2_IRQHandler) refers to bsp_usart2.o(.bss.recv2_flag) for recv2_flag
    bsp_usart2.o(.ARM.exidx.text.UART2_IRQHandler) refers to bsp_usart2.o(.text.UART2_IRQHandler) for [Anonymous Symbol]
    bsp_usart3.o(.text.usart3_init) refers to bsp_usart3.o(.bss.Uart3_RingBuff) for Uart3_RingBuff
    bsp_usart3.o(.ARM.exidx.text.usart3_init) refers to bsp_usart3.o(.text.usart3_init) for [Anonymous Symbol]
    bsp_usart3.o(.ARM.exidx.text.RingBuff_Init) refers to bsp_usart3.o(.text.RingBuff_Init) for [Anonymous Symbol]
    bsp_usart3.o(.ARM.exidx.text.uart3_send_char) refers to bsp_usart3.o(.text.uart3_send_char) for [Anonymous Symbol]
    bsp_usart3.o(.ARM.exidx.text.uart3_send_string) refers to bsp_usart3.o(.text.uart3_send_string) for [Anonymous Symbol]
    bsp_usart3.o(.text.Write_RingBuff) refers to aeabi_sdivfast.o(.text) for __aeabi_uidivmod
    bsp_usart3.o(.ARM.exidx.text.Write_RingBuff) refers to bsp_usart3.o(.text.Write_RingBuff) for [Anonymous Symbol]
    bsp_usart3.o(.text.Read_RingBuff) refers to aeabi_sdivfast.o(.text) for __aeabi_uidivmod
    bsp_usart3.o(.ARM.exidx.text.Read_RingBuff) refers to bsp_usart3.o(.text.Read_RingBuff) for [Anonymous Symbol]
    bsp_usart3.o(.text.UART3_IRQHandler) refers to aeabi_sdivfast.o(.text) for __aeabi_uidivmod
    bsp_usart3.o(.text.UART3_IRQHandler) refers to bsp_beep_led.o(.text.OPEN_MCULED) for OPEN_MCULED
    bsp_usart3.o(.text.UART3_IRQHandler) refers to bsp_usart3.o(.bss.Uart3_RingBuff) for Uart3_RingBuff
    bsp_usart3.o(.text.UART3_IRQHandler) refers to bsp_usart3.o(.bss.recv3_flag) for recv3_flag
    bsp_usart3.o(.ARM.exidx.text.UART3_IRQHandler) refers to bsp_usart3.o(.text.UART3_IRQHandler) for [Anonymous Symbol]
    bsp_usart_voice.o(.text.get_voice) refers to bsp_motor.o(.text.Motor_Run) for Motor_Run
    bsp_usart_voice.o(.text.get_voice) refers to bsp_motor.o(.text.Motor_Left) for Motor_Left
    bsp_usart_voice.o(.text.get_voice) refers to bsp_motor.o(.text.Motor_Stop) for Motor_Stop
    bsp_usart_voice.o(.text.get_voice) refers to bsp_motor.o(.text.Motor_Right) for Motor_Right
    bsp_usart_voice.o(.text.get_voice) refers to bsp_usart2.o(.bss.get_v) for get_v
    bsp_usart_voice.o(.ARM.exidx.text.get_voice) refers to bsp_usart_voice.o(.text.get_voice) for [Anonymous Symbol]
    bsp_usart_voice.o(.text.Processing_Data) refers to bsp_usart_voice.o(.bss.Processing_Data.g_index) for [Anonymous Symbol]
    bsp_usart_voice.o(.text.Processing_Data) refers to bsp_usart_voice.o(.bss.Processing_Data.recv_buf) for [Anonymous Symbol]
    bsp_usart_voice.o(.ARM.exidx.text.Processing_Data) refers to bsp_usart_voice.o(.text.Processing_Data) for [Anonymous Symbol]
    bsp_usart_voice.o(.text.Write_Data) refers to bsp_usart_voice.o(.bss.voice) for voice
    bsp_usart_voice.o(.ARM.exidx.text.Write_Data) refers to bsp_usart_voice.o(.text.Write_Data) for [Anonymous Symbol]
    k210_use.o(.text.recv_k210msg) refers to rt_memclr.o(.text) for __aeabi_memclr4
    k210_use.o(.text.recv_k210msg) refers to k210_use.o(.text.deal_data) for deal_data
    k210_use.o(.text.recv_k210msg) refers to k210_use.o(.bss.buf_len) for buf_len
    k210_use.o(.text.recv_k210msg) refers to k210_use.o(.bss.r_index) for r_index
    k210_use.o(.text.recv_k210msg) refers to k210_use.o(.bss.tou_flag) for tou_flag
    k210_use.o(.text.recv_k210msg) refers to k210_use.o(.bss.new_flag) for new_flag
    k210_use.o(.text.recv_k210msg) refers to k210_use.o(.bss.len_flag) for len_flag
    k210_use.o(.text.recv_k210msg) refers to k210_use.o(.bss.buf_msg) for buf_msg
    k210_use.o(.text.recv_k210msg) refers to k210_use.o(.bss.buf_crc) for buf_crc
    k210_use.o(.text.recv_k210msg) refers to k210_use.o(.bss.data) for data
    k210_use.o(.ARM.exidx.text.recv_k210msg) refers to k210_use.o(.text.recv_k210msg) for [Anonymous Symbol]
    k210_use.o(.text.deal_recvmsg) refers to rt_memclr.o(.text) for __aeabi_memclr4
    k210_use.o(.text.deal_recvmsg) refers to k210_use.o(.text.deal_data) for deal_data
    k210_use.o(.text.deal_recvmsg) refers to k210_use.o(.bss.buf_msg) for buf_msg
    k210_use.o(.text.deal_recvmsg) refers to k210_use.o(.bss.buf_len) for buf_len
    k210_use.o(.text.deal_recvmsg) refers to k210_use.o(.bss.r_index) for r_index
    k210_use.o(.text.deal_recvmsg) refers to k210_use.o(.bss.data) for data
    k210_use.o(.text.deal_recvmsg) refers to k210_use.o(.bss.buf_crc) for buf_crc
    k210_use.o(.ARM.exidx.text.deal_recvmsg) refers to k210_use.o(.text.deal_recvmsg) for [Anonymous Symbol]
    k210_use.o(.text.deal_data) refers to strcpy.o(.text) for strcpy
    k210_use.o(.text.deal_data) refers to rt_memclr.o(.text) for __aeabi_memclr4
    k210_use.o(.text.deal_data) refers to k210_use.o(.bss.data) for data
    k210_use.o(.text.deal_data) refers to main.o(.bss.k210_msg) for k210_msg
    k210_use.o(.ARM.exidx.text.deal_data) refers to k210_use.o(.text.deal_data) for [Anonymous Symbol]
    k210_use.o(.text.k210_receiver) refers to noretval__2printf.o(.text) for __2printf
    k210_use.o(.text.k210_receiver) refers to usart0.o(.text.uart0_send_string) for uart0_send_string
    k210_use.o(.text.k210_receiver) refers to main.o(.bss.k210_msg) for k210_msg
    k210_use.o(.text.k210_receiver) refers to k210_use.o(.bss.buff_com) for buff_com
    k210_use.o(.ARM.exidx.text.k210_receiver) refers to k210_use.o(.text.k210_receiver) for [Anonymous Symbol]
    app_rgb.o(.text.app_color) refers to bsp_rgb.o(.text.rgb_SetColor) for rgb_SetColor
    app_rgb.o(.text.app_color) refers to bsp_rgb.o(.text.rgb_SendArray) for rgb_SendArray
    app_rgb.o(.text.app_color) refers to delay.o(.text.delay_ms) for delay_ms
    app_rgb.o(.text.app_color) refers to app_bluetooth.o(.bss.ProtocolString) for ProtocolString
    app_rgb.o(.text.app_color) refers to app_rgb.o(.rodata..Lswitch.table.app_color.1) for [Anonymous Symbol]
    app_rgb.o(.ARM.exidx.text.app_color) refers to app_rgb.o(.text.app_color) for [Anonymous Symbol]
    app_rgb.o(.text.Control_RGB_ALL) refers to bsp_rgb.o(.text.rgb_SetColor) for rgb_SetColor
    app_rgb.o(.text.Control_RGB_ALL) refers to bsp_rgb.o(.text.rgb_SendArray) for rgb_SendArray
    app_rgb.o(.text.Control_RGB_ALL) refers to delay.o(.text.delay_ms) for delay_ms
    app_rgb.o(.text.Control_RGB_ALL) refers to app_rgb.o(.rodata.str4.4) for [Anonymous Symbol]
    app_rgb.o(.ARM.exidx.text.Control_RGB_ALL) refers to app_rgb.o(.text.Control_RGB_ALL) for [Anonymous Symbol]
    app_irremote.o(.text) refers (Special) to _printf_hex_int.o(.text) for _printf_longlong_hex
    app_irremote.o(.text) refers (Special) to _printf_percent.o(.ARM.Collect$$_printf_percent$$00000000) for _printf_percent
    app_irremote.o(.text) refers (Special) to _printf_x.o(.ARM.Collect$$_printf_percent$$0000000C) for _printf_x
    app_irremote.o(.text.Printf_Irremote) refers (Special) to _printf_hex_int.o(.text) for _printf_longlong_hex
    app_irremote.o(.text.Printf_Irremote) refers (Special) to _printf_percent.o(.ARM.Collect$$_printf_percent$$00000000) for _printf_percent
    app_irremote.o(.text.Printf_Irremote) refers (Special) to _printf_x.o(.ARM.Collect$$_printf_percent$$0000000C) for _printf_x
    app_irremote.o(.text.Printf_Irremote) refers to bsp_ir_receiver.o(.text.get_infrared_command) for get_infrared_command
    app_irremote.o(.text.Printf_Irremote) refers to bsp_ir_receiver.o(.text.clear_infrared_command) for clear_infrared_command
    app_irremote.o(.text.Printf_Irremote) refers to noretval__2printf.o(.text) for __2printf
    app_irremote.o(.text.Printf_Irremote) refers to app_irremote.o(.data.gIRdata) for gIRdata
    app_irremote.o(.ARM.exidx.text.Printf_Irremote) refers (Special) to _printf_hex_int.o(.text) for _printf_longlong_hex
    app_irremote.o(.ARM.exidx.text.Printf_Irremote) refers (Special) to _printf_percent.o(.ARM.Collect$$_printf_percent$$00000000) for _printf_percent
    app_irremote.o(.ARM.exidx.text.Printf_Irremote) refers (Special) to _printf_x.o(.ARM.Collect$$_printf_percent$$0000000C) for _printf_x
    app_irremote.o(.ARM.exidx.text.Printf_Irremote) refers to app_irremote.o(.text.Printf_Irremote) for [Anonymous Symbol]
    app_irremote.o(.text.IR_Control_Car) refers (Special) to _printf_hex_int.o(.text) for _printf_longlong_hex
    app_irremote.o(.text.IR_Control_Car) refers (Special) to _printf_percent.o(.ARM.Collect$$_printf_percent$$00000000) for _printf_percent
    app_irremote.o(.text.IR_Control_Car) refers (Special) to _printf_x.o(.ARM.Collect$$_printf_percent$$0000000C) for _printf_x
    app_irremote.o(.text.IR_Control_Car) refers to bsp_ir_receiver.o(.text.get_infrared_command) for get_infrared_command
    app_irremote.o(.text.IR_Control_Car) refers to bsp_ir_receiver.o(.text.clear_infrared_command) for clear_infrared_command
    app_irremote.o(.text.IR_Control_Car) refers to bsp_motor.o(.text.Motor_Left) for Motor_Left
    app_irremote.o(.text.IR_Control_Car) refers to bsp_motor.o(.text.Motor_Right) for Motor_Right
    app_irremote.o(.text.IR_Control_Car) refers to bsp_motor.o(.text.Motor_Run) for Motor_Run
    app_irremote.o(.text.IR_Control_Car) refers to bsp_motor.o(.text.Motor_Back) for Motor_Back
    app_irremote.o(.text.IR_Control_Car) refers to bsp_motor.o(.text.Motor_Stop) for Motor_Stop
    app_irremote.o(.text.IR_Control_Car) refers to app_irremote.o(.data.gIRdata) for gIRdata
    app_irremote.o(.ARM.exidx.text.IR_Control_Car) refers (Special) to _printf_hex_int.o(.text) for _printf_longlong_hex
    app_irremote.o(.ARM.exidx.text.IR_Control_Car) refers (Special) to _printf_percent.o(.ARM.Collect$$_printf_percent$$00000000) for _printf_percent
    app_irremote.o(.ARM.exidx.text.IR_Control_Car) refers (Special) to _printf_x.o(.ARM.Collect$$_printf_percent$$0000000C) for _printf_x
    app_irremote.o(.ARM.exidx.text.IR_Control_Car) refers to app_irremote.o(.text.IR_Control_Car) for [Anonymous Symbol]
    app_irremote.o(.data.get_CarState) refers (Special) to _printf_hex_int.o(.text) for _printf_longlong_hex
    app_irremote.o(.data.get_CarState) refers (Special) to _printf_percent.o(.ARM.Collect$$_printf_percent$$00000000) for _printf_percent
    app_irremote.o(.data.get_CarState) refers (Special) to _printf_x.o(.ARM.Collect$$_printf_percent$$0000000C) for _printf_x
    app_irremote.o(.data.gIRdata) refers (Special) to _printf_hex_int.o(.text) for _printf_longlong_hex
    app_irremote.o(.data.gIRdata) refers (Special) to _printf_percent.o(.ARM.Collect$$_printf_percent$$00000000) for _printf_percent
    app_irremote.o(.data.gIRdata) refers (Special) to _printf_x.o(.ARM.Collect$$_printf_percent$$0000000C) for _printf_x
    app_motor.o(.text.Motion_Get_Data) refers to app_motor.o(.bss.g_Encoder_All_Now) for g_Encoder_All_Now
    app_motor.o(.text.Motion_Get_Data) refers to app_motor.o(.bss.g_Encoder_All_Offset) for g_Encoder_All_Offset
    app_motor.o(.text.Motion_Get_Data) refers to app_motor.o(.bss.g_Encoder_All_Last) for g_Encoder_All_Last
    app_motor.o(.ARM.exidx.text.Motion_Get_Data) refers to app_motor.o(.text.Motion_Get_Data) for [Anonymous Symbol]
    app_motor.o(.text.Motion_Get_Motor_Speed) refers to app_motor.o(.bss.motor_data) for motor_data
    app_motor.o(.ARM.exidx.text.Motion_Get_Motor_Speed) refers to app_motor.o(.text.Motion_Get_Motor_Speed) for [Anonymous Symbol]
    app_motor.o(.text.Motion_Set_Yaw_Adjust) refers to app_motor.o(.bss.g_yaw_adjust) for g_yaw_adjust
    app_motor.o(.ARM.exidx.text.Motion_Set_Yaw_Adjust) refers to app_motor.o(.text.Motion_Set_Yaw_Adjust) for [Anonymous Symbol]
    app_motor.o(.text.Motion_Get_Yaw_Adjust) refers to app_motor.o(.bss.g_yaw_adjust) for g_yaw_adjust
    app_motor.o(.ARM.exidx.text.Motion_Get_Yaw_Adjust) refers to app_motor.o(.text.Motion_Get_Yaw_Adjust) for [Anonymous Symbol]
    app_motor.o(.text.Motion_Stop) refers to bsp_pid_motor.o(.text.PID_Set_Motor_Target) for PID_Set_Motor_Target
    app_motor.o(.text.Motion_Stop) refers to fflti.o(.text) for __aeabi_i2f
    app_motor.o(.text.Motion_Stop) refers to bsp_pid_motor.o(.text.PID_Clear_Motor) for PID_Clear_Motor
    app_motor.o(.text.Motion_Stop) refers to bsp_motor.o(.text.Motor_Stop) for Motor_Stop
    app_motor.o(.text.Motion_Stop) refers to app_motor.o(.bss.motor_data) for motor_data
    app_motor.o(.text.Motion_Stop) refers to app_motor.o(.bss.g_start_ctrl) for g_start_ctrl
    app_motor.o(.text.Motion_Stop) refers to app_motor.o(.bss.g_yaw_adjust) for g_yaw_adjust
    app_motor.o(.ARM.exidx.text.Motion_Stop) refers to app_motor.o(.text.Motion_Stop) for [Anonymous Symbol]
    app_motor.o(.text.Motion_Set_Speed) refers to fflti.o(.text) for __aeabi_i2f
    app_motor.o(.text.Motion_Set_Speed) refers to bsp_pid_motor.o(.text.PID_Set_Motor_Target) for PID_Set_Motor_Target
    app_motor.o(.text.Motion_Set_Speed) refers to app_motor.o(.bss.motor_data) for motor_data
    app_motor.o(.text.Motion_Set_Speed) refers to app_motor.o(.bss.g_start_ctrl) for g_start_ctrl
    app_motor.o(.ARM.exidx.text.Motion_Set_Speed) refers to app_motor.o(.text.Motion_Set_Speed) for [Anonymous Symbol]
    app_motor.o(.text.Motion_Yaw_Calc) refers to bsp_pid_motor.o(.text.PID_Yaw_Calc) for PID_Yaw_Calc
    app_motor.o(.text.Motion_Yaw_Calc) refers to fflti.o(.text) for __aeabi_ui2f
    app_motor.o(.text.Motion_Yaw_Calc) refers to fmul.o(x$fpl$fmul) for __aeabi_fmul
    app_motor.o(.text.Motion_Yaw_Calc) refers to ffixi.o(.text) for __aeabi_f2iz
    app_motor.o(.text.Motion_Yaw_Calc) refers to bsp_pid_motor.o(.text.PID_Set_Motor_Target) for PID_Set_Motor_Target
    app_motor.o(.text.Motion_Yaw_Calc) refers to app_motor.o(.bss.g_start_ctrl) for g_start_ctrl
    app_motor.o(.text.Motion_Yaw_Calc) refers to app_motor.o(.bss.g_speed_setup) for [Anonymous Symbol]
    app_motor.o(.text.Motion_Yaw_Calc) refers to app_motor.o(.bss.speed_R1_setup) for [Anonymous Symbol]
    app_motor.o(.text.Motion_Yaw_Calc) refers to app_motor.o(.bss.motor_data) for motor_data
    app_motor.o(.text.Motion_Yaw_Calc) refers to app_motor.o(.bss.speed_L1_setup) for [Anonymous Symbol]
    app_motor.o(.ARM.exidx.text.Motion_Yaw_Calc) refers to app_motor.o(.text.Motion_Yaw_Calc) for [Anonymous Symbol]
    app_motor.o(.text.Wheel_Yaw_Calc) refers to bsp_pid_motor.o(.text.PID_Yaw_Calc) for PID_Yaw_Calc
    app_motor.o(.text.Wheel_Yaw_Calc) refers to fflti.o(.text) for __aeabi_ui2f
    app_motor.o(.text.Wheel_Yaw_Calc) refers to fmul.o(x$fpl$fmul) for __aeabi_fmul
    app_motor.o(.text.Wheel_Yaw_Calc) refers to ffixi.o(.text) for __aeabi_f2iz
    app_motor.o(.text.Wheel_Yaw_Calc) refers to bsp_pid_motor.o(.text.PID_Set_Motor_Target) for PID_Set_Motor_Target
    app_motor.o(.text.Wheel_Yaw_Calc) refers to app_motor.o(.bss.g_start_ctrl) for g_start_ctrl
    app_motor.o(.text.Wheel_Yaw_Calc) refers to app_motor.o(.bss.g_speed_setup) for [Anonymous Symbol]
    app_motor.o(.text.Wheel_Yaw_Calc) refers to app_motor.o(.bss.speed_R1_setup) for [Anonymous Symbol]
    app_motor.o(.text.Wheel_Yaw_Calc) refers to app_motor.o(.bss.motor_data) for motor_data
    app_motor.o(.text.Wheel_Yaw_Calc) refers to app_motor.o(.bss.speed_L1_setup) for [Anonymous Symbol]
    app_motor.o(.ARM.exidx.text.Wheel_Yaw_Calc) refers to app_motor.o(.text.Wheel_Yaw_Calc) for [Anonymous Symbol]
    app_motor.o(.text.Motion_Get_Speed) refers to bsp_encoder.o(.text.Encoder_Get_ALL) for Encoder_Get_ALL
    app_motor.o(.text.Motion_Get_Speed) refers to fflti.o(.text) for __aeabi_i2f
    app_motor.o(.text.Motion_Get_Speed) refers to fmul.o(x$fpl$fmul) for __aeabi_fmul
    app_motor.o(.text.Motion_Get_Speed) refers to fdiv.o(.text) for __aeabi_fdiv
    app_motor.o(.text.Motion_Get_Speed) refers to faddsub.o(x$fpl$fsub) for __aeabi_fsub
    app_motor.o(.text.Motion_Get_Speed) refers to ffixi.o(.text) for __aeabi_f2iz
    app_motor.o(.text.Motion_Get_Speed) refers to faddsub.o(x$fpl$fadd) for __aeabi_fadd
    app_motor.o(.text.Motion_Get_Speed) refers to bsp_pid_motor.o(.text.PID_Calc_Motor) for PID_Calc_Motor
    app_motor.o(.text.Motion_Get_Speed) refers to app_motor.o(.bss.g_Encoder_All_Now) for g_Encoder_All_Now
    app_motor.o(.text.Motion_Get_Speed) refers to app_motor.o(.bss.g_Encoder_All_Last) for g_Encoder_All_Last
    app_motor.o(.text.Motion_Get_Speed) refers to app_motor.o(.bss.g_Encoder_All_Offset) for g_Encoder_All_Offset
    app_motor.o(.text.Motion_Get_Speed) refers to app_motor.o(.bss.g_start_ctrl) for g_start_ctrl
    app_motor.o(.text.Motion_Get_Speed) refers to app_motor.o(.bss.motor_data) for motor_data
    app_motor.o(.ARM.exidx.text.Motion_Get_Speed) refers to app_motor.o(.text.Motion_Get_Speed) for [Anonymous Symbol]
    app_motor.o(.ARM.exidx.text.Motion_Get_Circle_MM) refers to app_motor.o(.text.Motion_Get_Circle_MM) for [Anonymous Symbol]
    app_motor.o(.ARM.exidx.text.Motion_Get_APB) refers to app_motor.o(.text.Motion_Get_APB) for [Anonymous Symbol]
    app_motor.o(.text.Motion_Get_Encoder) refers to bsp_encoder.o(.text.Encoder_Get_ALL) for Encoder_Get_ALL
    app_motor.o(.text.Motion_Get_Encoder) refers to app_motor.o(.bss.g_Encoder_All_Now) for g_Encoder_All_Now
    app_motor.o(.text.Motion_Get_Encoder) refers to app_motor.o(.bss.g_Encoder_All_Last) for g_Encoder_All_Last
    app_motor.o(.text.Motion_Get_Encoder) refers to app_motor.o(.bss.g_Encoder_All_Offset) for g_Encoder_All_Offset
    app_motor.o(.ARM.exidx.text.Motion_Get_Encoder) refers to app_motor.o(.text.Motion_Get_Encoder) for [Anonymous Symbol]
    app_motor.o(.text.Motion_Ctrl) refers to app_motor.o(.text.wheel_Ctrl) for wheel_Ctrl
    app_motor.o(.ARM.exidx.text.Motion_Ctrl) refers to app_motor.o(.text.Motion_Ctrl) for [Anonymous Symbol]
    app_motor.o(.text.wheel_Ctrl) refers to fflti.o(.text) for __aeabi_i2f
    app_motor.o(.text.wheel_Ctrl) refers to fdiv.o(.text) for __aeabi_fdiv
    app_motor.o(.text.wheel_Ctrl) refers to fmul.o(x$fpl$fmul) for __aeabi_fmul
    app_motor.o(.text.wheel_Ctrl) refers to faddsub.o(x$fpl$fsub) for __aeabi_fsub
    app_motor.o(.text.wheel_Ctrl) refers to ffixi.o(.text) for __aeabi_f2iz
    app_motor.o(.text.wheel_Ctrl) refers to faddsub.o(x$fpl$fadd) for __aeabi_fadd
    app_motor.o(.text.wheel_Ctrl) refers to bsp_pid_motor.o(.text.PID_Set_Motor_Target) for PID_Set_Motor_Target
    app_motor.o(.text.wheel_Ctrl) refers to bsp_pid_motor.o(.text.PID_Clear_Motor) for PID_Clear_Motor
    app_motor.o(.text.wheel_Ctrl) refers to bsp_motor.o(.text.Motor_Stop) for Motor_Stop
    app_motor.o(.text.wheel_Ctrl) refers to app_motor.o(.bss.speed_R1_setup) for [Anonymous Symbol]
    app_motor.o(.text.wheel_Ctrl) refers to app_motor.o(.bss.speed_L1_setup) for [Anonymous Symbol]
    app_motor.o(.text.wheel_Ctrl) refers to app_motor.o(.bss.motor_data) for motor_data
    app_motor.o(.text.wheel_Ctrl) refers to app_motor.o(.bss.g_start_ctrl) for g_start_ctrl
    app_motor.o(.text.wheel_Ctrl) refers to app_motor.o(.bss.g_yaw_adjust) for g_yaw_adjust
    app_motor.o(.ARM.exidx.text.wheel_Ctrl) refers to app_motor.o(.text.wheel_Ctrl) for [Anonymous Symbol]
    app_motor.o(.text.Motion_Ctrl_State) refers to app_motor.o(.text.wheel_State_YAW) for wheel_State_YAW
    app_motor.o(.ARM.exidx.text.Motion_Ctrl_State) refers to app_motor.o(.text.Motion_Ctrl_State) for [Anonymous Symbol]
    app_motor.o(.text.wheel_State_YAW) refers to bsp_pid_motor.o(.text.PID_Set_Motor_Target) for PID_Set_Motor_Target
    app_motor.o(.text.wheel_State_YAW) refers to fflti.o(.text) for __aeabi_i2f
    app_motor.o(.text.wheel_State_YAW) refers to bsp_pid_motor.o(.text.PID_Clear_Motor) for PID_Clear_Motor
    app_motor.o(.text.wheel_State_YAW) refers to bsp_motor.o(.text.Motor_Stop) for Motor_Stop
    app_motor.o(.text.wheel_State_YAW) refers to app_motor.o(.text.wheel_Ctrl) for wheel_Ctrl
    app_motor.o(.text.wheel_State_YAW) refers to app_motor.o(.bss.g_speed_setup) for [Anonymous Symbol]
    app_motor.o(.text.wheel_State_YAW) refers to app_motor.o(.bss.g_yaw_adjust) for g_yaw_adjust
    app_motor.o(.text.wheel_State_YAW) refers to app_motor.o(.bss.motor_data) for motor_data
    app_motor.o(.text.wheel_State_YAW) refers to app_motor.o(.bss.g_start_ctrl) for g_start_ctrl
    app_motor.o(.ARM.exidx.text.wheel_State_YAW) refers to app_motor.o(.text.wheel_State_YAW) for [Anonymous Symbol]
    app_motor.o(.text.wheel_State) refers to bsp_pid_motor.o(.text.PID_Set_Motor_Target) for PID_Set_Motor_Target
    app_motor.o(.text.wheel_State) refers to fflti.o(.text) for __aeabi_i2f
    app_motor.o(.text.wheel_State) refers to bsp_pid_motor.o(.text.PID_Clear_Motor) for PID_Clear_Motor
    app_motor.o(.text.wheel_State) refers to bsp_motor.o(.text.Motor_Stop) for Motor_Stop
    app_motor.o(.text.wheel_State) refers to app_motor.o(.text.wheel_Ctrl) for wheel_Ctrl
    app_motor.o(.text.wheel_State) refers to app_motor.o(.bss.g_speed_setup) for [Anonymous Symbol]
    app_motor.o(.text.wheel_State) refers to app_motor.o(.bss.motor_data) for motor_data
    app_motor.o(.text.wheel_State) refers to app_motor.o(.bss.g_start_ctrl) for g_start_ctrl
    app_motor.o(.text.wheel_State) refers to app_motor.o(.bss.g_yaw_adjust) for g_yaw_adjust
    app_motor.o(.ARM.exidx.text.wheel_State) refers to app_motor.o(.text.wheel_State) for [Anonymous Symbol]
    app_motor.o(.text.Motion_Handle) refers to app_motor.o(.text.Motion_Get_Speed) for Motion_Get_Speed
    app_motor.o(.text.Motion_Handle) refers to ffixi.o(.text) for __aeabi_f2iz
    app_motor.o(.text.Motion_Handle) refers to bsp_motor.o(.text.PWM_Control_Car) for PWM_Control_Car
    app_motor.o(.text.Motion_Handle) refers to app_motor.o(.bss.car_data) for car_data
    app_motor.o(.text.Motion_Handle) refers to app_motor.o(.bss.g_start_ctrl) for g_start_ctrl
    app_motor.o(.text.Motion_Handle) refers to app_motor.o(.bss.motor_data) for motor_data
    app_motor.o(.text.Motion_Handle) refers to bsp_pid_motor.o(.bss.pid_motor) for pid_motor
    app_motor.o(.ARM.exidx.text.Motion_Handle) refers to app_motor.o(.text.Motion_Handle) for [Anonymous Symbol]
    bsp_pid_motor.o(.text.PID_Param_Init) refers to bsp_pid_motor.o(.bss.pid_motor) for pid_motor
    bsp_pid_motor.o(.text.PID_Param_Init) refers to bsp_pid_motor.o(.data.pid_Yaw) for pid_Yaw
    bsp_pid_motor.o(.ARM.exidx.text.PID_Param_Init) refers to bsp_pid_motor.o(.text.PID_Param_Init) for [Anonymous Symbol]
    bsp_pid_motor.o(.ARM.exidx.text.PID_Set_Parm) refers to bsp_pid_motor.o(.text.PID_Set_Parm) for [Anonymous Symbol]
    bsp_pid_motor.o(.ARM.exidx.text.PID_Set_Target) refers to bsp_pid_motor.o(.text.PID_Set_Target) for [Anonymous Symbol]
    bsp_pid_motor.o(.ARM.exidx.text.PID_Get_Target) refers to bsp_pid_motor.o(.text.PID_Get_Target) for [Anonymous Symbol]
    bsp_pid_motor.o(.text.PID_Incre_Calc) refers to faddsub.o(x$fpl$fsub) for __aeabi_fsub
    bsp_pid_motor.o(.text.PID_Incre_Calc) refers to fmul.o(x$fpl$fmul) for __aeabi_fmul
    bsp_pid_motor.o(.text.PID_Incre_Calc) refers to faddsub.o(x$fpl$fadd) for __aeabi_fadd
    bsp_pid_motor.o(.text.PID_Incre_Calc) refers to fcmp.o(i._fgr) for __aeabi_fcmpgt
    bsp_pid_motor.o(.text.PID_Incre_Calc) refers to fcmp.o(i._fgeq) for __aeabi_fcmpge
    bsp_pid_motor.o(.ARM.exidx.text.PID_Incre_Calc) refers to bsp_pid_motor.o(.text.PID_Incre_Calc) for [Anonymous Symbol]
    bsp_pid_motor.o(.text.PID_Location_Calc) refers to faddsub.o(x$fpl$fsub) for __aeabi_fsub
    bsp_pid_motor.o(.text.PID_Location_Calc) refers to fcmp.o(i._fls) for __aeabi_fcmplt
    bsp_pid_motor.o(.text.PID_Location_Calc) refers to fcmp.o(i._fgr) for __aeabi_fcmpgt
    bsp_pid_motor.o(.text.PID_Location_Calc) refers to fcmp.o(i._fleq) for __aeabi_fcmple
    bsp_pid_motor.o(.text.PID_Location_Calc) refers to fcmp.o(i._fgeq) for __aeabi_fcmpge
    bsp_pid_motor.o(.text.PID_Location_Calc) refers to faddsub.o(x$fpl$fadd) for __aeabi_fadd
    bsp_pid_motor.o(.text.PID_Location_Calc) refers to fmul.o(x$fpl$fmul) for __aeabi_fmul
    bsp_pid_motor.o(.ARM.exidx.text.PID_Location_Calc) refers to bsp_pid_motor.o(.text.PID_Location_Calc) for [Anonymous Symbol]
    bsp_pid_motor.o(.text.PID_Calc_Motor) refers to bsp_pid_motor.o(.text.PID_Incre_Calc) for PID_Incre_Calc
    bsp_pid_motor.o(.text.PID_Calc_Motor) refers to bsp_pid_motor.o(.bss.pid_motor) for pid_motor
    bsp_pid_motor.o(.ARM.exidx.text.PID_Calc_Motor) refers to bsp_pid_motor.o(.text.PID_Calc_Motor) for [Anonymous Symbol]
    bsp_pid_motor.o(.text.PID_Calc_One_Motor) refers to bsp_pid_motor.o(.text.PID_Incre_Calc) for PID_Incre_Calc
    bsp_pid_motor.o(.text.PID_Calc_One_Motor) refers to bsp_pid_motor.o(.bss.pid_motor) for pid_motor
    bsp_pid_motor.o(.ARM.exidx.text.PID_Calc_One_Motor) refers to bsp_pid_motor.o(.text.PID_Calc_One_Motor) for [Anonymous Symbol]
    bsp_pid_motor.o(.text.PID_Set_Motor_Parm) refers to bsp_pid_motor.o(.bss.pid_motor) for pid_motor
    bsp_pid_motor.o(.ARM.exidx.text.PID_Set_Motor_Parm) refers to bsp_pid_motor.o(.text.PID_Set_Motor_Parm) for [Anonymous Symbol]
    bsp_pid_motor.o(.text.PID_Clear_Motor) refers to bsp_pid_motor.o(.bss.pid_motor) for pid_motor
    bsp_pid_motor.o(.ARM.exidx.text.PID_Clear_Motor) refers to bsp_pid_motor.o(.text.PID_Clear_Motor) for [Anonymous Symbol]
    bsp_pid_motor.o(.text.PID_Set_Motor_Target) refers to bsp_pid_motor.o(.bss.pid_motor) for pid_motor
    bsp_pid_motor.o(.ARM.exidx.text.PID_Set_Motor_Target) refers to bsp_pid_motor.o(.text.PID_Set_Motor_Target) for [Anonymous Symbol]
    bsp_pid_motor.o(.text.Pid_Get_Motor) refers to bsp_pid_motor.o(.bss.pid_motor) for pid_motor
    bsp_pid_motor.o(.ARM.exidx.text.Pid_Get_Motor) refers to bsp_pid_motor.o(.text.Pid_Get_Motor) for [Anonymous Symbol]
    bsp_pid_motor.o(.text.PID_Yaw_Reset) refers to bsp_pid_motor.o(.data.pid_Yaw) for pid_Yaw
    bsp_pid_motor.o(.ARM.exidx.text.PID_Yaw_Reset) refers to bsp_pid_motor.o(.text.PID_Yaw_Reset) for [Anonymous Symbol]
    bsp_pid_motor.o(.text.PID_Yaw_Calc) refers to faddsub.o(x$fpl$fsub) for __aeabi_fsub
    bsp_pid_motor.o(.text.PID_Yaw_Calc) refers to faddsub.o(x$fpl$fadd) for __aeabi_fadd
    bsp_pid_motor.o(.text.PID_Yaw_Calc) refers to fmul.o(x$fpl$fmul) for __aeabi_fmul
    bsp_pid_motor.o(.text.PID_Yaw_Calc) refers to fcmp.o(i._fls) for __aeabi_fcmplt
    bsp_pid_motor.o(.text.PID_Yaw_Calc) refers to bsp_pid_motor.o(.data.pid_Yaw) for pid_Yaw
    bsp_pid_motor.o(.ARM.exidx.text.PID_Yaw_Calc) refers to bsp_pid_motor.o(.text.PID_Yaw_Calc) for [Anonymous Symbol]
    bsp_pid_motor.o(.text.PID_Yaw_Set_Parm) refers to bsp_pid_motor.o(.data.pid_Yaw) for pid_Yaw
    bsp_pid_motor.o(.ARM.exidx.text.PID_Yaw_Set_Parm) refers to bsp_pid_motor.o(.text.PID_Yaw_Set_Parm) for [Anonymous Symbol]
    app_ir_track.o(.text.Track_PID) refers to fflti.o(.text) for __aeabi_i2f
    app_ir_track.o(.text.Track_PID) refers to faddsub.o(x$fpl$fadd) for __aeabi_fadd
    app_ir_track.o(.text.Track_PID) refers to fcmp.o(i._fgr) for __aeabi_fcmpgt
    app_ir_track.o(.text.Track_PID) refers to fcmp.o(i._fgeq) for __aeabi_fcmpge
    app_ir_track.o(.text.Track_PID) refers to dflti.o(.text) for __aeabi_i2d
    app_ir_track.o(.text.Track_PID) refers to f2d.o(.text) for __aeabi_f2d
    app_ir_track.o(.text.Track_PID) refers to dmul.o(.text) for __aeabi_dmul
    app_ir_track.o(.text.Track_PID) refers to daddsub.o(.text) for __aeabi_dadd
    app_ir_track.o(.text.Track_PID) refers to d2f.o(.text) for __aeabi_d2f
    app_ir_track.o(.text.Track_PID) refers to app_ir_track.o(.bss.Track_PID.IRTrack_Integral) for [Anonymous Symbol]
    app_ir_track.o(.ARM.exidx.text.Track_PID) refers to app_ir_track.o(.text.Track_PID) for [Anonymous Symbol]
    app_ir_track.o(.text.LineWalking) refers to app_ir_track.o(.text.Track_PID) for Track_PID
    app_ir_track.o(.text.LineWalking) refers to ffixi.o(.text) for __aeabi_f2iz
    app_ir_track.o(.text.LineWalking) refers to app_motor.o(.text.Motion_Ctrl) for Motion_Ctrl
    app_ir_track.o(.text.LineWalking) refers to app_ir_track.o(.bss.LineWalking.err) for [Anonymous Symbol]
    app_ir_track.o(.text.LineWalking) refers to app_ir_track.o(.bss.pid_output_IRR) for pid_output_IRR
    app_ir_track.o(.ARM.exidx.text.LineWalking) refers to app_ir_track.o(.text.LineWalking) for [Anonymous Symbol]
    app_bluetooth.o(.text.Deal_Bluetooth) refers to app_bluetooth.o(.bss.g_num) for g_num
    app_bluetooth.o(.text.Deal_Bluetooth) refers to app_bluetooth.o(.bss.startBit) for startBit
    app_bluetooth.o(.text.Deal_Bluetooth) refers to app_bluetooth.o(.bss.inputString) for inputString
    app_bluetooth.o(.text.Deal_Bluetooth) refers to app_bluetooth.o(.bss.newLineReceived) for newLineReceived
    app_bluetooth.o(.text.Deal_Bluetooth) refers to app_bluetooth.o(.bss.g_packnum) for g_packnum
    app_bluetooth.o(.ARM.exidx.text.Deal_Bluetooth) refers to app_bluetooth.o(.text.Deal_Bluetooth) for [Anonymous Symbol]
    app_bluetooth.o(.text.Copy_Bluetooth_Data) refers to rt_memcpy.o(.emb_text) for __aeabi_memcpy4
    app_bluetooth.o(.text.Copy_Bluetooth_Data) refers to rt_memclr.o(.text) for __aeabi_memclr4
    app_bluetooth.o(.text.Copy_Bluetooth_Data) refers to app_bluetooth.o(.bss.g_packnum) for g_packnum
    app_bluetooth.o(.text.Copy_Bluetooth_Data) refers to app_bluetooth.o(.bss.ProtocolString) for ProtocolString
    app_bluetooth.o(.text.Copy_Bluetooth_Data) refers to app_bluetooth.o(.bss.inputString) for inputString
    app_bluetooth.o(.ARM.exidx.text.Copy_Bluetooth_Data) refers to app_bluetooth.o(.text.Copy_Bluetooth_Data) for [Anonymous Symbol]
    app_bluetooth.o(.ARM.exidx.text.StringFind) refers to app_bluetooth.o(.text.StringFind) for [Anonymous Symbol]
    app_bluetooth.o(.text.Get_Data) refers to rt_memcpy.o(.emb_text) for __aeabi_memcpy4
    app_bluetooth.o(.text.Get_Data) refers to rt_memclr.o(.text) for __aeabi_memclr4
    app_bluetooth.o(.text.Get_Data) refers to app_bluetooth.o(.text.Deal_Motor_Data) for Deal_Motor_Data
    app_bluetooth.o(.text.Get_Data) refers to app_rgb.o(.text.app_color) for app_color
    app_bluetooth.o(.text.Get_Data) refers to app_bluetooth.o(.bss.g_packnum) for g_packnum
    app_bluetooth.o(.text.Get_Data) refers to app_bluetooth.o(.bss.ProtocolString) for ProtocolString
    app_bluetooth.o(.text.Get_Data) refers to app_bluetooth.o(.bss.inputString) for inputString
    app_bluetooth.o(.text.Get_Data) refers to app_bluetooth.o(.rodata.str1.1) for [Anonymous Symbol]
    app_bluetooth.o(.text.Get_Data) refers to app_bluetooth.o(.bss.newLineReceived) for newLineReceived
    app_bluetooth.o(.ARM.exidx.text.Get_Data) refers to app_bluetooth.o(.text.Get_Data) for [Anonymous Symbol]
    app_bluetooth.o(.text.Deal_Motor_Data) refers to app_motor.o(.text.wheel_State) for wheel_State
    app_bluetooth.o(.text.Deal_Motor_Data) refers to app_bluetooth.o(.bss.ProtocolString) for ProtocolString
    app_bluetooth.o(.text.Deal_Motor_Data) refers to app_bluetooth.o(.bss.g_CarState) for g_CarState
    app_bluetooth.o(.text.Deal_Motor_Data) refers to app_bluetooth.o(.data.CarSpeedControl) for CarSpeedControl
    app_bluetooth.o(.ARM.exidx.text.Deal_Motor_Data) refers to app_bluetooth.o(.text.Deal_Motor_Data) for [Anonymous Symbol]
    app_bluetooth.o(.ARM.exidx.text.Deal_RGB_Data) refers to app_bluetooth.o(.text.Deal_RGB_Data) for [Anonymous Symbol]
    app_bluetooth.o(.text.USE_Bluetooth_Control) refers to rt_memcpy.o(.emb_text) for __aeabi_memcpy4
    app_bluetooth.o(.text.USE_Bluetooth_Control) refers to rt_memclr.o(.text) for __aeabi_memclr4
    app_bluetooth.o(.text.USE_Bluetooth_Control) refers to app_bluetooth.o(.text.Deal_Motor_Data) for Deal_Motor_Data
    app_bluetooth.o(.text.USE_Bluetooth_Control) refers to app_rgb.o(.text.app_color) for app_color
    app_bluetooth.o(.text.USE_Bluetooth_Control) refers to app_ir_track.o(.text.LineWalking) for LineWalking
    app_bluetooth.o(.text.USE_Bluetooth_Control) refers to app_bluetooth.o(.bss.newLineReceived) for newLineReceived
    app_bluetooth.o(.text.USE_Bluetooth_Control) refers to app_bluetooth.o(.bss.g_packnum) for g_packnum
    app_bluetooth.o(.text.USE_Bluetooth_Control) refers to app_bluetooth.o(.bss.ProtocolString) for ProtocolString
    app_bluetooth.o(.text.USE_Bluetooth_Control) refers to app_bluetooth.o(.bss.inputString) for inputString
    app_bluetooth.o(.text.USE_Bluetooth_Control) refers to app_bluetooth.o(.rodata.str1.1) for [Anonymous Symbol]
    app_bluetooth.o(.text.USE_Bluetooth_Control) refers to app_bluetooth.o(.bss.g_modeSelect) for g_modeSelect
    app_bluetooth.o(.ARM.exidx.text.USE_Bluetooth_Control) refers to app_bluetooth.o(.text.USE_Bluetooth_Control) for [Anonymous Symbol]
    bsp_bluetooth.o(.ARM.exidx.text.bluetooth_init) refers to bsp_bluetooth.o(.text.bluetooth_init) for [Anonymous Symbol]
    bsp_bluetooth.o(.ARM.exidx.text.uart1_send_char) refers to bsp_bluetooth.o(.text.uart1_send_char) for [Anonymous Symbol]
    bsp_bluetooth.o(.ARM.exidx.text.uart1_send_string) refers to bsp_bluetooth.o(.text.uart1_send_string) for [Anonymous Symbol]
    bsp_bluetooth.o(.text.UART1_IRQHandler) refers to app_bluetooth.o(.text.Deal_Bluetooth) for Deal_Bluetooth
    bsp_bluetooth.o(.text.UART1_IRQHandler) refers to usart0.o(.text.uart0_send_char) for uart0_send_char
    bsp_bluetooth.o(.ARM.exidx.text.UART1_IRQHandler) refers to bsp_bluetooth.o(.text.UART1_IRQHandler) for [Anonymous Symbol]
    dl_adc12.o(.ARM.exidx.text.DL_ADC12_setClockConfig) refers to dl_adc12.o(.text.DL_ADC12_setClockConfig) for [Anonymous Symbol]
    dl_adc12.o(.ARM.exidx.text.DL_ADC12_getClockConfig) refers to dl_adc12.o(.text.DL_ADC12_getClockConfig) for [Anonymous Symbol]
    dl_common.o(.ARM.exidx.text.DL_Common_delayCycles) refers to dl_common.o(.text.DL_Common_delayCycles) for [Anonymous Symbol]
    dl_spi.o(.ARM.exidx.text.DL_SPI_init) refers to dl_spi.o(.text.DL_SPI_init) for [Anonymous Symbol]
    dl_spi.o(.ARM.exidx.text.DL_SPI_setClockConfig) refers to dl_spi.o(.text.DL_SPI_setClockConfig) for [Anonymous Symbol]
    dl_spi.o(.ARM.exidx.text.DL_SPI_getClockConfig) refers to dl_spi.o(.text.DL_SPI_getClockConfig) for [Anonymous Symbol]
    dl_spi.o(.ARM.exidx.text.DL_SPI_receiveDataBlocking8) refers to dl_spi.o(.text.DL_SPI_receiveDataBlocking8) for [Anonymous Symbol]
    dl_spi.o(.ARM.exidx.text.DL_SPI_receiveDataBlocking16) refers to dl_spi.o(.text.DL_SPI_receiveDataBlocking16) for [Anonymous Symbol]
    dl_spi.o(.ARM.exidx.text.DL_SPI_receiveDataBlocking32) refers to dl_spi.o(.text.DL_SPI_receiveDataBlocking32) for [Anonymous Symbol]
    dl_spi.o(.ARM.exidx.text.DL_SPI_transmitDataBlocking8) refers to dl_spi.o(.text.DL_SPI_transmitDataBlocking8) for [Anonymous Symbol]
    dl_spi.o(.ARM.exidx.text.DL_SPI_transmitDataBlocking16) refers to dl_spi.o(.text.DL_SPI_transmitDataBlocking16) for [Anonymous Symbol]
    dl_spi.o(.ARM.exidx.text.DL_SPI_transmitDataBlocking32) refers to dl_spi.o(.text.DL_SPI_transmitDataBlocking32) for [Anonymous Symbol]
    dl_spi.o(.ARM.exidx.text.DL_SPI_receiveDataCheck8) refers to dl_spi.o(.text.DL_SPI_receiveDataCheck8) for [Anonymous Symbol]
    dl_spi.o(.ARM.exidx.text.DL_SPI_receiveDataCheck16) refers to dl_spi.o(.text.DL_SPI_receiveDataCheck16) for [Anonymous Symbol]
    dl_spi.o(.ARM.exidx.text.DL_SPI_receiveDataCheck32) refers to dl_spi.o(.text.DL_SPI_receiveDataCheck32) for [Anonymous Symbol]
    dl_spi.o(.ARM.exidx.text.DL_SPI_transmitDataCheck8) refers to dl_spi.o(.text.DL_SPI_transmitDataCheck8) for [Anonymous Symbol]
    dl_spi.o(.ARM.exidx.text.DL_SPI_transmitDataCheck16) refers to dl_spi.o(.text.DL_SPI_transmitDataCheck16) for [Anonymous Symbol]
    dl_spi.o(.ARM.exidx.text.DL_SPI_transmitDataCheck32) refers to dl_spi.o(.text.DL_SPI_transmitDataCheck32) for [Anonymous Symbol]
    dl_spi.o(.ARM.exidx.text.DL_SPI_drainRXFIFO8) refers to dl_spi.o(.text.DL_SPI_drainRXFIFO8) for [Anonymous Symbol]
    dl_spi.o(.ARM.exidx.text.DL_SPI_drainRXFIFO16) refers to dl_spi.o(.text.DL_SPI_drainRXFIFO16) for [Anonymous Symbol]
    dl_spi.o(.ARM.exidx.text.DL_SPI_drainRXFIFO32) refers to dl_spi.o(.text.DL_SPI_drainRXFIFO32) for [Anonymous Symbol]
    dl_spi.o(.ARM.exidx.text.DL_SPI_fillTXFIFO8) refers to dl_spi.o(.text.DL_SPI_fillTXFIFO8) for [Anonymous Symbol]
    dl_spi.o(.ARM.exidx.text.DL_SPI_fillTXFIFO16) refers to dl_spi.o(.text.DL_SPI_fillTXFIFO16) for [Anonymous Symbol]
    dl_spi.o(.ARM.exidx.text.DL_SPI_saveConfiguration) refers to dl_spi.o(.text.DL_SPI_saveConfiguration) for [Anonymous Symbol]
    dl_spi.o(.ARM.exidx.text.DL_SPI_restoreConfiguration) refers to dl_spi.o(.text.DL_SPI_restoreConfiguration) for [Anonymous Symbol]
    dl_spi.o(.ARM.exidx.text.DL_SPI_fillTXFIFO32) refers to dl_spi.o(.text.DL_SPI_fillTXFIFO32) for [Anonymous Symbol]
    dl_timer.o(.ARM.exidx.text.DL_Timer_setClockConfig) refers to dl_timer.o(.text.DL_Timer_setClockConfig) for [Anonymous Symbol]
    dl_timer.o(.ARM.exidx.text.DL_Timer_getClockConfig) refers to dl_timer.o(.text.DL_Timer_getClockConfig) for [Anonymous Symbol]
    dl_timer.o(.ARM.exidx.text.DL_Timer_initTimerMode) refers to dl_timer.o(.text.DL_Timer_initTimerMode) for [Anonymous Symbol]
    dl_timer.o(.ARM.exidx.text.DL_Timer_setCaptureCompareValue) refers to dl_timer.o(.text.DL_Timer_setCaptureCompareValue) for [Anonymous Symbol]
    dl_timer.o(.ARM.exidx.text.DL_Timer_setCaptureCompareCtl) refers to dl_timer.o(.text.DL_Timer_setCaptureCompareCtl) for [Anonymous Symbol]
    dl_timer.o(.text.DL_Timer_initCaptureMode) refers to dl_timer.o(.rodata..Lswitch.table.DL_Timer_initCompareMode) for [Anonymous Symbol]
    dl_timer.o(.ARM.exidx.text.DL_Timer_initCaptureMode) refers to dl_timer.o(.text.DL_Timer_initCaptureMode) for [Anonymous Symbol]
    dl_timer.o(.ARM.exidx.text.DL_Timer_setCaptureCompareInput) refers to dl_timer.o(.text.DL_Timer_setCaptureCompareInput) for [Anonymous Symbol]
    dl_timer.o(.ARM.exidx.text.DL_Timer_initCaptureTriggerMode) refers to dl_timer.o(.text.DL_Timer_initCaptureTriggerMode) for [Anonymous Symbol]
    dl_timer.o(.text.DL_Timer_initCaptureCombinedMode) refers to dl_timer.o(.rodata..Lswitch.table.DL_Timer_initCompareMode) for [Anonymous Symbol]
    dl_timer.o(.ARM.exidx.text.DL_Timer_initCaptureCombinedMode) refers to dl_timer.o(.text.DL_Timer_initCaptureCombinedMode) for [Anonymous Symbol]
    dl_timer.o(.text.DL_Timer_initCompareMode) refers to dl_timer.o(.rodata..Lswitch.table.DL_Timer_initCompareMode) for [Anonymous Symbol]
    dl_timer.o(.ARM.exidx.text.DL_Timer_initCompareMode) refers to dl_timer.o(.text.DL_Timer_initCompareMode) for [Anonymous Symbol]
    dl_timer.o(.ARM.exidx.text.DL_Timer_initCompareTriggerMode) refers to dl_timer.o(.text.DL_Timer_initCompareTriggerMode) for [Anonymous Symbol]
    dl_timer.o(.ARM.exidx.text.DL_Timer_getCaptureCompareValue) refers to dl_timer.o(.text.DL_Timer_getCaptureCompareValue) for [Anonymous Symbol]
    dl_timer.o(.ARM.exidx.text.DL_Timer_getCaptureCompareCtl) refers to dl_timer.o(.text.DL_Timer_getCaptureCompareCtl) for [Anonymous Symbol]
    dl_timer.o(.ARM.exidx.text.DL_Timer_setSecondCompSrcDn) refers to dl_timer.o(.text.DL_Timer_setSecondCompSrcDn) for [Anonymous Symbol]
    dl_timer.o(.ARM.exidx.text.DL_Timer_getSecondCompSrcDn) refers to dl_timer.o(.text.DL_Timer_getSecondCompSrcDn) for [Anonymous Symbol]
    dl_timer.o(.ARM.exidx.text.DL_Timer_setSecondCompSrcUp) refers to dl_timer.o(.text.DL_Timer_setSecondCompSrcUp) for [Anonymous Symbol]
    dl_timer.o(.ARM.exidx.text.DL_Timer_getSecondCompSrcUp) refers to dl_timer.o(.text.DL_Timer_getSecondCompSrcUp) for [Anonymous Symbol]
    dl_timer.o(.ARM.exidx.text.DL_Timer_setSecondCompActionDn) refers to dl_timer.o(.text.DL_Timer_setSecondCompActionDn) for [Anonymous Symbol]
    dl_timer.o(.ARM.exidx.text.DL_Timer_getSecondCompActionDn) refers to dl_timer.o(.text.DL_Timer_getSecondCompActionDn) for [Anonymous Symbol]
    dl_timer.o(.ARM.exidx.text.DL_Timer_setSecondCompActionUp) refers to dl_timer.o(.text.DL_Timer_setSecondCompActionUp) for [Anonymous Symbol]
    dl_timer.o(.ARM.exidx.text.DL_Timer_getSecondCompActionUp) refers to dl_timer.o(.text.DL_Timer_getSecondCompActionUp) for [Anonymous Symbol]
    dl_timer.o(.ARM.exidx.text.DL_Timer_enableSuppressionOfCompEvent) refers to dl_timer.o(.text.DL_Timer_enableSuppressionOfCompEvent) for [Anonymous Symbol]
    dl_timer.o(.ARM.exidx.text.DL_Timer_disableSuppressionOfCompEvent) refers to dl_timer.o(.text.DL_Timer_disableSuppressionOfCompEvent) for [Anonymous Symbol]
    dl_timer.o(.ARM.exidx.text.DL_Timer_setCaptCompUpdateMethod) refers to dl_timer.o(.text.DL_Timer_setCaptCompUpdateMethod) for [Anonymous Symbol]
    dl_timer.o(.ARM.exidx.text.DL_Timer_getCaptCompUpdateMethod) refers to dl_timer.o(.text.DL_Timer_getCaptCompUpdateMethod) for [Anonymous Symbol]
    dl_timer.o(.ARM.exidx.text.DL_Timer_setCaptureCompareOutCtl) refers to dl_timer.o(.text.DL_Timer_setCaptureCompareOutCtl) for [Anonymous Symbol]
    dl_timer.o(.ARM.exidx.text.DL_Timer_getCaptureCompareOutCtl) refers to dl_timer.o(.text.DL_Timer_getCaptureCompareOutCtl) for [Anonymous Symbol]
    dl_timer.o(.ARM.exidx.text.DL_Timer_setCaptureCompareAction) refers to dl_timer.o(.text.DL_Timer_setCaptureCompareAction) for [Anonymous Symbol]
    dl_timer.o(.ARM.exidx.text.DL_Timer_getCaptureCompareAction) refers to dl_timer.o(.text.DL_Timer_getCaptureCompareAction) for [Anonymous Symbol]
    dl_timer.o(.ARM.exidx.text.DL_Timer_overrideCCPOut) refers to dl_timer.o(.text.DL_Timer_overrideCCPOut) for [Anonymous Symbol]
    dl_timer.o(.ARM.exidx.text.DL_Timer_getCaptureCompareInput) refers to dl_timer.o(.text.DL_Timer_getCaptureCompareInput) for [Anonymous Symbol]
    dl_timer.o(.ARM.exidx.text.DL_Timer_setCaptureCompareInputFilter) refers to dl_timer.o(.text.DL_Timer_setCaptureCompareInputFilter) for [Anonymous Symbol]
    dl_timer.o(.ARM.exidx.text.DL_Timer_getCaptureCompareInputFilter) refers to dl_timer.o(.text.DL_Timer_getCaptureCompareInputFilter) for [Anonymous Symbol]
    dl_timer.o(.ARM.exidx.text.DL_Timer_enableCaptureCompareInputFilter) refers to dl_timer.o(.text.DL_Timer_enableCaptureCompareInputFilter) for [Anonymous Symbol]
    dl_timer.o(.ARM.exidx.text.DL_Timer_disableCaptureCompareInputFilter) refers to dl_timer.o(.text.DL_Timer_disableCaptureCompareInputFilter) for [Anonymous Symbol]
    dl_timer.o(.ARM.exidx.text.DL_Timer_isCaptureCompareInputFilterEnabled) refers to dl_timer.o(.text.DL_Timer_isCaptureCompareInputFilterEnabled) for [Anonymous Symbol]
    dl_timer.o(.ARM.exidx.text.DL_Timer_saveConfiguration) refers to dl_timer.o(.text.DL_Timer_saveConfiguration) for [Anonymous Symbol]
    dl_timer.o(.ARM.exidx.text.DL_Timer_restoreConfiguration) refers to dl_timer.o(.text.DL_Timer_restoreConfiguration) for [Anonymous Symbol]
    dl_timer.o(.ARM.exidx.text.DL_Timer_initFourCCPWMMode) refers to dl_timer.o(.text.DL_Timer_initFourCCPWMMode) for [Anonymous Symbol]
    dl_timer.o(.ARM.exidx.text.DL_Timer_setFaultSourceConfig) refers to dl_timer.o(.text.DL_Timer_setFaultSourceConfig) for [Anonymous Symbol]
    dl_timer.o(.ARM.exidx.text.DL_Timer_getFaultSourceConfig) refers to dl_timer.o(.text.DL_Timer_getFaultSourceConfig) for [Anonymous Symbol]
    dl_timer.o(.ARM.exidx.text.DL_TimerA_saveConfiguration) refers to dl_timer.o(.text.DL_TimerA_saveConfiguration) for [Anonymous Symbol]
    dl_timer.o(.ARM.exidx.text.DL_TimerA_restoreConfiguration) refers to dl_timer.o(.text.DL_TimerA_restoreConfiguration) for [Anonymous Symbol]
    dl_timer.o(.ARM.exidx.text.DL_Timer_configQEIHallInputMode) refers to dl_timer.o(.text.DL_Timer_configQEIHallInputMode) for [Anonymous Symbol]
    dl_uart.o(.ARM.exidx.text.DL_UART_init) refers to dl_uart.o(.text.DL_UART_init) for [Anonymous Symbol]
    dl_uart.o(.ARM.exidx.text.DL_UART_setClockConfig) refers to dl_uart.o(.text.DL_UART_setClockConfig) for [Anonymous Symbol]
    dl_uart.o(.ARM.exidx.text.DL_UART_getClockConfig) refers to dl_uart.o(.text.DL_UART_getClockConfig) for [Anonymous Symbol]
    dl_uart.o(.text.DL_UART_configBaudRate) refers to aeabi_sdivfast.o(.text_divfast) for __aeabi_uidiv
    dl_uart.o(.ARM.exidx.text.DL_UART_configBaudRate) refers to dl_uart.o(.text.DL_UART_configBaudRate) for [Anonymous Symbol]
    dl_uart.o(.ARM.exidx.text.DL_UART_configIrDAMode) refers to dl_uart.o(.text.DL_UART_configIrDAMode) for [Anonymous Symbol]
    dl_uart.o(.ARM.exidx.text.DL_UART_setIrDAPulseLength) refers to dl_uart.o(.text.DL_UART_setIrDAPulseLength) for [Anonymous Symbol]
    dl_uart.o(.ARM.exidx.text.DL_UART_receiveDataBlocking) refers to dl_uart.o(.text.DL_UART_receiveDataBlocking) for [Anonymous Symbol]
    dl_uart.o(.ARM.exidx.text.DL_UART_transmitDataBlocking) refers to dl_uart.o(.text.DL_UART_transmitDataBlocking) for [Anonymous Symbol]
    dl_uart.o(.ARM.exidx.text.DL_UART_receiveDataCheck) refers to dl_uart.o(.text.DL_UART_receiveDataCheck) for [Anonymous Symbol]
    dl_uart.o(.ARM.exidx.text.DL_UART_transmitDataCheck) refers to dl_uart.o(.text.DL_UART_transmitDataCheck) for [Anonymous Symbol]
    dl_uart.o(.ARM.exidx.text.DL_UART_drainRXFIFO) refers to dl_uart.o(.text.DL_UART_drainRXFIFO) for [Anonymous Symbol]
    dl_uart.o(.ARM.exidx.text.DL_UART_fillTXFIFO) refers to dl_uart.o(.text.DL_UART_fillTXFIFO) for [Anonymous Symbol]
    dl_uart.o(.ARM.exidx.text.DL_UART_Main_saveConfiguration) refers to dl_uart.o(.text.DL_UART_Main_saveConfiguration) for [Anonymous Symbol]
    dl_uart.o(.ARM.exidx.text.DL_UART_Main_restoreConfiguration) refers to dl_uart.o(.text.DL_UART_Main_restoreConfiguration) for [Anonymous Symbol]
    dl_uart.o(.ARM.exidx.text.DL_UART_Extend_saveConfiguration) refers to dl_uart.o(.text.DL_UART_Extend_saveConfiguration) for [Anonymous Symbol]
    dl_uart.o(.ARM.exidx.text.DL_UART_Extend_restoreConfiguration) refers to dl_uart.o(.text.DL_UART_Extend_restoreConfiguration) for [Anonymous Symbol]
    dl_sysctl_mspm0g1x0x_g3x0x.o(.ARM.exidx.text.DL_SYSCTL_configSYSPLL) refers to dl_sysctl_mspm0g1x0x_g3x0x.o(.text.DL_SYSCTL_configSYSPLL) for [Anonymous Symbol]
    dl_sysctl_mspm0g1x0x_g3x0x.o(.ARM.exidx.text.DL_SYSCTL_setLFCLKSourceLFXT) refers to dl_sysctl_mspm0g1x0x_g3x0x.o(.text.DL_SYSCTL_setLFCLKSourceLFXT) for [Anonymous Symbol]
    dl_sysctl_mspm0g1x0x_g3x0x.o(.ARM.exidx.text.DL_SYSCTL_switchMCLKfromSYSOSCtoLFCLK) refers to dl_sysctl_mspm0g1x0x_g3x0x.o(.text.DL_SYSCTL_switchMCLKfromSYSOSCtoLFCLK) for [Anonymous Symbol]
    dl_sysctl_mspm0g1x0x_g3x0x.o(.ARM.exidx.text.DL_SYSCTL_switchMCLKfromLFCLKtoSYSOSC) refers to dl_sysctl_mspm0g1x0x_g3x0x.o(.text.DL_SYSCTL_switchMCLKfromLFCLKtoSYSOSC) for [Anonymous Symbol]
    dl_sysctl_mspm0g1x0x_g3x0x.o(.ARM.exidx.text.DL_SYSCTL_switchMCLKfromSYSOSCtoHSCLK) refers to dl_sysctl_mspm0g1x0x_g3x0x.o(.text.DL_SYSCTL_switchMCLKfromSYSOSCtoHSCLK) for [Anonymous Symbol]
    dl_sysctl_mspm0g1x0x_g3x0x.o(.ARM.exidx.text.DL_SYSCTL_switchMCLKfromHSCLKtoSYSOSC) refers to dl_sysctl_mspm0g1x0x_g3x0x.o(.text.DL_SYSCTL_switchMCLKfromHSCLKtoSYSOSC) for [Anonymous Symbol]
    dl_sysctl_mspm0g1x0x_g3x0x.o(.ARM.exidx.text.DL_SYSCTL_setHFCLKSourceHFXT) refers to dl_sysctl_mspm0g1x0x_g3x0x.o(.text.DL_SYSCTL_setHFCLKSourceHFXT) for [Anonymous Symbol]
    dl_sysctl_mspm0g1x0x_g3x0x.o(.ARM.exidx.text.DL_SYSCTL_setHFCLKSourceHFXTParams) refers to dl_sysctl_mspm0g1x0x_g3x0x.o(.text.DL_SYSCTL_setHFCLKSourceHFXTParams) for [Anonymous Symbol]
    dl_sysctl_mspm0g1x0x_g3x0x.o(.ARM.exidx.text.DL_SYSCTL_configFCC) refers to dl_sysctl_mspm0g1x0x_g3x0x.o(.text.DL_SYSCTL_configFCC) for [Anonymous Symbol]
    dl_sysctl_mspm0g1x0x_g3x0x.o(.ARM.exidx.text.DL_SYSCTL_getPowerPolicyRUNSLEEP) refers to dl_sysctl_mspm0g1x0x_g3x0x.o(.text.DL_SYSCTL_getPowerPolicyRUNSLEEP) for [Anonymous Symbol]
    dl_sysctl_mspm0g1x0x_g3x0x.o(.ARM.exidx.text.DL_SYSCTL_getPowerPolicySTOP) refers to dl_sysctl_mspm0g1x0x_g3x0x.o(.text.DL_SYSCTL_getPowerPolicySTOP) for [Anonymous Symbol]
    dl_sysctl_mspm0g1x0x_g3x0x.o(.ARM.exidx.text.DL_SYSCTL_getPowerPolicySTANDBY) refers to dl_sysctl_mspm0g1x0x_g3x0x.o(.text.DL_SYSCTL_getPowerPolicySTANDBY) for [Anonymous Symbol]
    __2printf.o(.text) refers to _printf_char_file.o(.text) for _printf_char_file
    __2printf.o(.text) refers to usart0.o(.bss.__stdout) for __stdout
    noretval__2printf.o(.text) refers to _printf_char_file.o(.text) for _printf_char_file
    noretval__2printf.o(.text) refers to usart0.o(.bss.__stdout) for __stdout
    __printf.o(.text) refers to _printf_percent.o(.ARM.Collect$$_printf_percent$$00000000) for _printf_percent
    _printf_dec.o(.text) refers to rtudiv10.o(.text) for __rt_udiv10
    _printf_dec.o(.text) refers to _printf_intcommon.o(.text) for _printf_int_common
    _printf_hex_ll.o(.text) refers to _printf_intcommon.o(.text) for _printf_int_common
    _printf_hex_ll.o(.text) refers to _printf_hex_ll.o(.constdata) for .constdata
    _printf_hex_int.o(.text) refers to _printf_intcommon.o(.text) for _printf_int_common
    _printf_hex_int.o(.text) refers to _printf_hex_int.o(.constdata) for .constdata
    _printf_hex_int_ll.o(.text) refers to _printf_intcommon.o(.text) for _printf_int_common
    _printf_hex_int_ll.o(.text) refers to _printf_hex_int_ll.o(.constdata) for .constdata
    _printf_hex_ptr.o(.text) refers to _printf_intcommon.o(.text) for _printf_int_common
    _printf_hex_ptr.o(.text) refers to _printf_hex_ptr.o(.constdata) for .constdata
    _printf_hex_int_ptr.o(.text) refers to _printf_intcommon.o(.text) for _printf_int_common
    _printf_hex_int_ptr.o(.text) refers to _printf_hex_int_ptr.o(.constdata) for .constdata
    _printf_hex_ll_ptr.o(.text) refers to _printf_intcommon.o(.text) for _printf_int_common
    _printf_hex_ll_ptr.o(.text) refers to _printf_hex_ll_ptr.o(.constdata) for .constdata
    _printf_hex_int_ll_ptr.o(.text) refers to _printf_intcommon.o(.text) for _printf_int_common
    _printf_hex_int_ll_ptr.o(.text) refers to _printf_hex_int_ll_ptr.o(.constdata) for .constdata
    __printf_flags.o(.text) refers to _printf_percent.o(.ARM.Collect$$_printf_percent$$00000000) for _printf_percent
    __printf_flags.o(.text) refers to __printf_flags.o(.constdata) for .constdata
    __printf_ss.o(.text) refers to _printf_percent.o(.ARM.Collect$$_printf_percent$$00000000) for _printf_percent
    __printf_flags_ss.o(.text) refers to _printf_percent.o(.ARM.Collect$$_printf_percent$$00000000) for _printf_percent
    __printf_flags_ss.o(.text) refers to __printf_flags_ss.o(.constdata) for .constdata
    __printf_wp.o(.text) refers to __printf_wp.o(i._is_digit) for _is_digit
    __printf_wp.o(.text) refers to _printf_percent.o(.ARM.Collect$$_printf_percent$$00000000) for _printf_percent
    __printf_flags_wp.o(.text) refers to __printf_wp.o(i._is_digit) for _is_digit
    __printf_flags_wp.o(.text) refers to _printf_percent.o(.ARM.Collect$$_printf_percent$$00000000) for _printf_percent
    __printf_flags_wp.o(.text) refers to __printf_flags_wp.o(.constdata) for .constdata
    __printf_ss_wp.o(.text) refers to __printf_wp.o(i._is_digit) for _is_digit
    __printf_ss_wp.o(.text) refers to _printf_percent.o(.ARM.Collect$$_printf_percent$$00000000) for _printf_percent
    __printf_flags_ss_wp.o(.text) refers to __printf_wp.o(i._is_digit) for _is_digit
    __printf_flags_ss_wp.o(.text) refers to _printf_percent.o(.ARM.Collect$$_printf_percent$$00000000) for _printf_percent
    __printf_flags_ss_wp.o(.text) refers to __printf_flags_ss_wp.o(.constdata) for .constdata
    _printf_x.o(.ARM.Collect$$_printf_percent$$0000000C) refers (Weak) to _printf_hex_int.o(.text) for _printf_int_hex
    _printf_d.o(.ARM.Collect$$_printf_percent$$00000009) refers (Weak) to _printf_dec.o(.text) for _printf_int_dec
    _printf_percent.o(.ARM.Collect$$_printf_percent$$00000000) refers (Special) to _printf_percent_end.o(.ARM.Collect$$_printf_percent$$00000017) for _printf_percent_end
    puts.o(.text) refers to usart0.o(.text.fputc) for fputc
    puts.o(.text) refers to usart0.o(.bss.__stdout) for __stdout
    rt_memcpy.o(.text) refers to rt_memcpy.o(.emb_text) for __aeabi_memcpy4
    __main.o(!!!main) refers to __rtentry.o(.ARM.Collect$$rtentry$$00000000) for __rt_entry
    d2f.o(.text) refers (Special) to usenofp.o(x$fpl$usenofp) for __I$use$fp
    daddsub.o(.text) refers (Special) to usenofp.o(x$fpl$usenofp) for __I$use$fp
    dflti.o(.text) refers (Special) to usenofp.o(x$fpl$usenofp) for __I$use$fp
    dmul.o(.text) refers (Special) to usenofp.o(x$fpl$usenofp) for __I$use$fp
    f2d.o(.text) refers (Special) to usenofp.o(x$fpl$usenofp) for __I$use$fp
    faddsub.o(x$fpl$fadd) refers (Special) to usenofp.o(x$fpl$usenofp) for __I$use$fp
    faddsub.o(x$fpl$fadd) refers to faddsub.o(x$fpl$fsub) for _fsub1
    faddsub.o(x$fpl$frsb) refers (Special) to usenofp.o(x$fpl$usenofp) for __I$use$fp
    faddsub.o(x$fpl$frsb) refers to faddsub.o(x$fpl$fsub) for _fsub1
    faddsub.o(x$fpl$frsb) refers to faddsub.o(x$fpl$fadd) for _fadd1
    faddsub.o(x$fpl$fsub) refers (Special) to usenofp.o(x$fpl$usenofp) for __I$use$fp
    faddsub.o(x$fpl$fsub) refers to faddsub.o(x$fpl$fadd) for _fadd1
    fcmp.o(i._feq) refers (Special) to usenofp.o(x$fpl$usenofp) for __I$use$fp
    fcmp.o(i._feq) refers to feqf.o(x$fpl$feqf) for _fcmpeq
    fcmp.o(i._fgeq) refers (Special) to usenofp.o(x$fpl$usenofp) for __I$use$fp
    fcmp.o(i._fgeq) refers to fgef.o(x$fpl$fgeqf) for _fcmpge
    fcmp.o(i._fgr) refers (Special) to usenofp.o(x$fpl$usenofp) for __I$use$fp
    fcmp.o(i._fgr) refers to fgef.o(x$fpl$fgeqf) for _fcmpge
    fcmp.o(i._fleq) refers (Special) to usenofp.o(x$fpl$usenofp) for __I$use$fp
    fcmp.o(i._fleq) refers to flef.o(x$fpl$fleqf) for _fcmple
    fcmp.o(i._fls) refers (Special) to usenofp.o(x$fpl$usenofp) for __I$use$fp
    fcmp.o(i._fls) refers to flef.o(x$fpl$fleqf) for _fcmple
    fcmp.o(i._fneq) refers (Special) to usenofp.o(x$fpl$usenofp) for __I$use$fp
    fcmp.o(i._fneq) refers to feqf.o(x$fpl$feqf) for _fcmpeq
    fdiv.o(.text) refers (Special) to usenofp.o(x$fpl$usenofp) for __I$use$fp
    fdiv.o(.text) refers to fdiv.o(.constdata) for .constdata
    fdiv.o(.constdata) refers (Special) to usenofp.o(x$fpl$usenofp) for __I$use$fp
    ffixi.o(.text) refers (Special) to usenofp.o(x$fpl$usenofp) for __I$use$fp
    ffixui.o(.text) refers (Special) to usenofp.o(x$fpl$usenofp) for __I$use$fp
    fflti.o(.text) refers (Special) to usenofp.o(x$fpl$usenofp) for __I$use$fp
    fmul.o(x$fpl$fmul) refers (Special) to usenofp.o(x$fpl$usenofp) for __I$use$fp
    __rtentry.o(.ARM.Collect$$rtentry$$00000000) refers (Special) to __rtentry2.o(.ARM.Collect$$rtentry$$0000000A) for __rt_entry_li
    __rtentry.o(.ARM.Collect$$rtentry$$00000000) refers (Special) to __rtentry2.o(.ARM.Collect$$rtentry$$0000000D) for __rt_entry_main
    __rtentry.o(.ARM.Collect$$rtentry$$00000000) refers (Special) to __rtentry2.o(.ARM.Collect$$rtentry$$0000000C) for __rt_entry_postli_1
    __rtentry.o(.ARM.Collect$$rtentry$$00000000) refers (Special) to __rtentry2.o(.ARM.Collect$$rtentry$$00000009) for __rt_entry_postsh_1
    __rtentry.o(.ARM.Collect$$rtentry$$00000000) refers (Special) to __rtentry2.o(.ARM.Collect$$rtentry$$00000002) for __rt_entry_presh_1
    __rtentry.o(.ARM.Collect$$rtentry$$00000000) refers (Special) to __rtentry4.o(.ARM.Collect$$rtentry$$00000004) for __rt_entry_sh
    aeabi_idiv0_sigfpe.o(.text) refers to rt_div0.o(.text) for __rt_div0
    _printf_char_file.o(.text) refers to _printf_char_common.o(.text) for _printf_char_common
    _printf_char_file.o(.text) refers to ferror.o(.text) for ferror
    _printf_char_file.o(.text) refers to usart0.o(.text.fputc) for fputc
    feqf.o(x$fpl$feqf) refers (Special) to usenofp.o(x$fpl$usenofp) for __I$use$fp
    feqf.o(x$fpl$feqf) refers to fcmpin.o(.text) for __fpl_fcmp_InfNaN
    fgef.o(x$fpl$fgeqf) refers (Special) to usenofp.o(x$fpl$usenofp) for __I$use$fp
    fgef.o(x$fpl$fgeqf) refers to fcmpin.o(.text) for __fpl_fcmp_InfNaN
    flef.o(x$fpl$fleqf) refers (Special) to usenofp.o(x$fpl$usenofp) for __I$use$fp
    flef.o(x$fpl$fleqf) refers to fcmpin.o(.text) for __fpl_fcmp_InfNaN
    __rtentry2.o(.ARM.Collect$$rtentry$$00000008) refers to boardinit2.o(.text) for _platform_post_stackheap_init
    __rtentry2.o(.ARM.Collect$$rtentry$$0000000A) refers to libinit.o(.ARM.Collect$$libinit$$00000000) for __rt_lib_init
    __rtentry2.o(.ARM.Collect$$rtentry$$0000000B) refers to boardinit3.o(.text) for _platform_post_lib_init
    __rtentry2.o(.ARM.Collect$$rtentry$$0000000D) refers to main.o(.text.main) for main
    __rtentry2.o(.ARM.Collect$$rtentry$$0000000D) refers to exit.o(.text) for exit
    __rtentry2.o(.ARM.exidx) refers to __rtentry2.o(.ARM.Collect$$rtentry$$00000001) for .ARM.Collect$$rtentry$$00000001
    __rtentry2.o(.ARM.exidx) refers to __rtentry2.o(.ARM.Collect$$rtentry$$00000008) for .ARM.Collect$$rtentry$$00000008
    __rtentry2.o(.ARM.exidx) refers to __rtentry2.o(.ARM.Collect$$rtentry$$0000000A) for .ARM.Collect$$rtentry$$0000000A
    __rtentry2.o(.ARM.exidx) refers to __rtentry2.o(.ARM.Collect$$rtentry$$0000000B) for .ARM.Collect$$rtentry$$0000000B
    __rtentry2.o(.ARM.exidx) refers to __rtentry2.o(.ARM.Collect$$rtentry$$0000000D) for .ARM.Collect$$rtentry$$0000000D
    __rtentry4.o(.ARM.Collect$$rtentry$$00000004) refers to sys_stackheap_outer.o(.text) for __user_setup_stackheap
    __rtentry4.o(.ARM.exidx) refers to __rtentry4.o(.ARM.Collect$$rtentry$$00000004) for .ARM.Collect$$rtentry$$00000004
    rt_div0.o(.text) refers to defsig_fpe_outer.o(.text) for __rt_SIGFPE
    _printf_char_common.o(.text) refers to __printf.o(.text) for __printf
    fcmpin.o(.text) refers (Special) to usenofp.o(x$fpl$usenofp) for __I$use$fp
    fcmpin.o(.text) refers to cmpret.o(.text) for __fpl_cmpreturn
    fcmpin.o(.text) refers to fnan2.o(.text) for __fpl_fcheck_NaN2
    sys_stackheap_outer.o(.text) refers to libspace.o(.text) for __user_perproc_libspace
    sys_stackheap_outer.o(.text) refers to startup_mspm0g350x_uvision.o(.text) for __user_initial_stackheap
    sys_stackheap_outer.o(__vectab_stack_and_reset_area) refers to tempstk.o(.text) for __temporary_stack_top
    sys_stackheap_outer.o(__vectab_stack_and_reset_area) refers to __main.o(!!!main) for __main
    exit.o(.text) refers to rtexit.o(.ARM.Collect$$rtexit$$00000000) for __rt_exit
    defsig_fpe_outer.o(.text) refers to defsig_fpe_inner.o(.text) for __rt_SIGFPE_inner
    defsig_fpe_outer.o(.text) refers to defsig_exit.o(.text) for __sig_exit
    defsig_fpe_formal.o(.text) refers to rt_raise.o(.text) for __rt_raise
    libinit.o(.ARM.Collect$$libinit$$00000000) refers (Special) to libinit2.o(.ARM.Collect$$libinit$$0000002E) for __rt_lib_init_alloca_1
    libinit.o(.ARM.Collect$$libinit$$00000000) refers (Special) to libinit2.o(.ARM.Collect$$libinit$$0000002C) for __rt_lib_init_argv_1
    libinit.o(.ARM.Collect$$libinit$$00000000) refers (Special) to libinit2.o(.ARM.Collect$$libinit$$0000001B) for __rt_lib_init_atexit_1
    libinit.o(.ARM.Collect$$libinit$$00000000) refers (Special) to libinit2.o(.ARM.Collect$$libinit$$00000021) for __rt_lib_init_clock_1
    libinit.o(.ARM.Collect$$libinit$$00000000) refers (Special) to libinit2.o(.ARM.Collect$$libinit$$00000032) for __rt_lib_init_cpp_1
    libinit.o(.ARM.Collect$$libinit$$00000000) refers (Special) to libinit2.o(.ARM.Collect$$libinit$$00000030) for __rt_lib_init_exceptions_1
    libinit.o(.ARM.Collect$$libinit$$00000000) refers (Special) to libinit2.o(.ARM.Collect$$libinit$$00000002) for __rt_lib_init_fp_1
    libinit.o(.ARM.Collect$$libinit$$00000000) refers (Special) to libinit2.o(.ARM.Collect$$libinit$$0000001F) for __rt_lib_init_fp_trap_1
    libinit.o(.ARM.Collect$$libinit$$00000000) refers (Special) to libinit2.o(.ARM.Collect$$libinit$$00000023) for __rt_lib_init_getenv_1
    libinit.o(.ARM.Collect$$libinit$$00000000) refers (Special) to libinit2.o(.ARM.Collect$$libinit$$0000000A) for __rt_lib_init_heap_1
    libinit.o(.ARM.Collect$$libinit$$00000000) refers (Special) to libinit2.o(.ARM.Collect$$libinit$$00000011) for __rt_lib_init_lc_collate_1
    libinit.o(.ARM.Collect$$libinit$$00000000) refers (Special) to libinit2.o(.ARM.Collect$$libinit$$00000013) for __rt_lib_init_lc_ctype_1
    libinit.o(.ARM.Collect$$libinit$$00000000) refers (Special) to libinit2.o(.ARM.Collect$$libinit$$00000015) for __rt_lib_init_lc_monetary_1
    libinit.o(.ARM.Collect$$libinit$$00000000) refers (Special) to libinit2.o(.ARM.Collect$$libinit$$00000017) for __rt_lib_init_lc_numeric_1
    libinit.o(.ARM.Collect$$libinit$$00000000) refers (Special) to libinit2.o(.ARM.Collect$$libinit$$00000019) for __rt_lib_init_lc_time_1
    libinit.o(.ARM.Collect$$libinit$$00000000) refers (Special) to libinit2.o(.ARM.Collect$$libinit$$00000004) for __rt_lib_init_preinit_1
    libinit.o(.ARM.Collect$$libinit$$00000000) refers (Special) to libinit2.o(.ARM.Collect$$libinit$$0000000E) for __rt_lib_init_rand_1
    libinit.o(.ARM.Collect$$libinit$$00000000) refers (Special) to libinit2.o(.ARM.Collect$$libinit$$00000033) for __rt_lib_init_return
    libinit.o(.ARM.Collect$$libinit$$00000000) refers (Special) to libinit2.o(.ARM.Collect$$libinit$$0000001D) for __rt_lib_init_signal_1
    libinit.o(.ARM.Collect$$libinit$$00000000) refers (Special) to libinit2.o(.ARM.Collect$$libinit$$00000025) for __rt_lib_init_stdio_1
    libinit.o(.ARM.Collect$$libinit$$00000000) refers (Special) to libinit2.o(.ARM.Collect$$libinit$$0000000C) for __rt_lib_init_user_alloc_1
    cmpret.o(.text) refers (Special) to usenofp.o(x$fpl$usenofp) for __I$use$fp
    fnan2.o(.text) refers (Special) to usenofp.o(x$fpl$usenofp) for __I$use$fp
    fnan2.o(.text) refers to retnan.o(.text) for __fpl_return_NaN
    libspace.o(.text) refers to libspace.o(.bss) for __libspace_start
    rtexit.o(.ARM.Collect$$rtexit$$00000000) refers (Special) to rtexit2.o(.ARM.Collect$$rtexit$$00000004) for __rt_exit_exit
    rtexit.o(.ARM.Collect$$rtexit$$00000000) refers (Special) to rtexit2.o(.ARM.Collect$$rtexit$$00000003) for __rt_exit_ls
    rtexit.o(.ARM.Collect$$rtexit$$00000000) refers (Special) to rtexit2.o(.ARM.Collect$$rtexit$$00000002) for __rt_exit_prels_1
    rtexit.o(.ARM.exidx) refers (Special) to rtexit2.o(.ARM.Collect$$rtexit$$00000004) for __rt_exit_exit
    rtexit.o(.ARM.exidx) refers (Special) to rtexit2.o(.ARM.Collect$$rtexit$$00000003) for __rt_exit_ls
    rtexit.o(.ARM.exidx) refers (Special) to rtexit2.o(.ARM.Collect$$rtexit$$00000002) for __rt_exit_prels_1
    rtexit.o(.ARM.exidx) refers to rtexit.o(.ARM.Collect$$rtexit$$00000000) for .ARM.Collect$$rtexit$$00000000
    rt_raise.o(.text) refers to __raise.o(.text) for __raise
    rt_raise.o(.text) refers to usart0.o(.text._sys_exit) for _sys_exit
    defsig_exit.o(.text) refers to usart0.o(.text._sys_exit) for _sys_exit
    defsig_fpe_inner.o(.text) refers to defsig_general.o(.text) for __default_signal_display
    libinit2.o(.ARM.Collect$$libinit$$00000010) refers to libinit2.o(.ARM.Collect$$libinit$$0000000F) for .ARM.Collect$$libinit$$0000000F
    libinit2.o(.ARM.Collect$$libinit$$00000012) refers to libinit2.o(.ARM.Collect$$libinit$$0000000F) for .ARM.Collect$$libinit$$0000000F
    libinit2.o(.ARM.Collect$$libinit$$00000014) refers to libinit2.o(.ARM.Collect$$libinit$$0000000F) for .ARM.Collect$$libinit$$0000000F
    libinit2.o(.ARM.Collect$$libinit$$00000016) refers to libinit2.o(.ARM.Collect$$libinit$$0000000F) for .ARM.Collect$$libinit$$0000000F
    libinit2.o(.ARM.Collect$$libinit$$00000018) refers to libinit2.o(.ARM.Collect$$libinit$$0000000F) for .ARM.Collect$$libinit$$0000000F
    libinit2.o(.ARM.Collect$$libinit$$00000026) refers to argv_veneer.o(.text) for __ARM_argv_veneer
    libinit2.o(.ARM.Collect$$libinit$$00000027) refers to argv_veneer.o(.text) for __ARM_argv_veneer
    retnan.o(.text) refers (Special) to usenofp.o(x$fpl$usenofp) for __I$use$fp
    retnan.o(.text) refers to cmpret.o(.text) for __fpl_cmpreturn
    rtexit2.o(.ARM.Collect$$rtexit$$00000003) refers to libshutdown.o(.ARM.Collect$$libshutdown$$00000000) for __rt_lib_shutdown
    rtexit2.o(.ARM.Collect$$rtexit$$00000004) refers to usart0.o(.text._sys_exit) for _sys_exit
    rtexit2.o(.ARM.exidx) refers to rtexit2.o(.ARM.Collect$$rtexit$$00000001) for .ARM.Collect$$rtexit$$00000001
    rtexit2.o(.ARM.exidx) refers to rtexit2.o(.ARM.Collect$$rtexit$$00000003) for .ARM.Collect$$rtexit$$00000003
    rtexit2.o(.ARM.exidx) refers to rtexit2.o(.ARM.Collect$$rtexit$$00000004) for .ARM.Collect$$rtexit$$00000004
    __raise.o(.text) refers to defsig.o(CL$$defsig) for __default_signal_handler
    defsig_general.o(.text) refers to sys_wrch.o(.text) for _ttywrch
    sys_wrch.o(.text) refers (Special) to use_no_semi.o(.text) for __I$use$semihosting
    sys_wrch.o(.text) refers (Special) to indicate_semi.o(.text) for __semihosting_library_function
    sys_wrch_hlt.o(.text) refers (Special) to use_no_semi.o(.text) for __I$use$semihosting
    sys_wrch_hlt.o(.text) refers (Special) to indicate_semi.o(.text) for __semihosting_library_function
    defsig.o(CL$$defsig) refers to defsig_fpe_inner.o(.text) for __rt_SIGFPE_inner
    defsig.o(CL$$defsig) refers to defsig_rtmem_inner.o(.text) for __rt_SIGRTMEM_inner
    _get_argv_nomalloc.o(.text) refers (Special) to hrguard.o(.text) for __heap_region$guard
    _get_argv_nomalloc.o(.text) refers to defsig_rtmem_outer.o(.text) for __rt_SIGRTMEM
    _get_argv_nomalloc.o(.text) refers to sys_command.o(.text) for _sys_command_string
    libshutdown.o(.ARM.Collect$$libshutdown$$00000000) refers (Special) to libshutdown2.o(.ARM.Collect$$libshutdown$$00000002) for __rt_lib_shutdown_cpp_1
    libshutdown.o(.ARM.Collect$$libshutdown$$00000000) refers (Special) to libshutdown2.o(.ARM.Collect$$libshutdown$$00000007) for __rt_lib_shutdown_fp_trap_1
    libshutdown.o(.ARM.Collect$$libshutdown$$00000000) refers (Special) to libshutdown2.o(.ARM.Collect$$libshutdown$$0000000F) for __rt_lib_shutdown_heap_1
    libshutdown.o(.ARM.Collect$$libshutdown$$00000000) refers (Special) to libshutdown2.o(.ARM.Collect$$libshutdown$$00000010) for __rt_lib_shutdown_return
    libshutdown.o(.ARM.Collect$$libshutdown$$00000000) refers (Special) to libshutdown2.o(.ARM.Collect$$libshutdown$$0000000A) for __rt_lib_shutdown_signal_1
    libshutdown.o(.ARM.Collect$$libshutdown$$00000000) refers (Special) to libshutdown2.o(.ARM.Collect$$libshutdown$$00000004) for __rt_lib_shutdown_stdio_1
    libshutdown.o(.ARM.Collect$$libshutdown$$00000000) refers (Special) to libshutdown2.o(.ARM.Collect$$libshutdown$$0000000C) for __rt_lib_shutdown_user_alloc_1
    sys_command.o(.text) refers (Special) to use_no_semi.o(.text) for __I$use$semihosting
    sys_command.o(.text) refers (Special) to indicate_semi.o(.text) for __semihosting_library_function
    sys_command_hlt.o(.text) refers (Special) to use_no_semi.o(.text) for __I$use$semihosting
    sys_command_hlt.o(.text) refers (Special) to indicate_semi.o(.text) for __semihosting_library_function
    defsig_abrt_inner.o(.text) refers to defsig_general.o(.text) for __default_signal_display
    defsig_rtred_inner.o(.text) refers to defsig_general.o(.text) for __default_signal_display
    defsig_rtmem_inner.o(.text) refers to defsig_general.o(.text) for __default_signal_display
    defsig_rtmem_outer.o(.text) refers to defsig_rtmem_inner.o(.text) for __rt_SIGRTMEM_inner
    defsig_rtmem_outer.o(.text) refers to defsig_exit.o(.text) for __sig_exit
    defsig_rtmem_formal.o(.text) refers to rt_raise.o(.text) for __rt_raise
    defsig_stak_inner.o(.text) refers to defsig_general.o(.text) for __default_signal_display
    defsig_pvfn_inner.o(.text) refers to defsig_general.o(.text) for __default_signal_display
    defsig_cppl_inner.o(.text) refers to defsig_general.o(.text) for __default_signal_display
    defsig_segv_inner.o(.text) refers to defsig_general.o(.text) for __default_signal_display
    defsig_other.o(.text) refers to defsig_general.o(.text) for __default_signal_display


==============================================================================

Removing Unused input sections from the image.

    Removing ti_msp_dl_config.o(.text), (0 bytes).
    Removing ti_msp_dl_config.o(.ARM.exidx.text.SYSCFG_DL_init), (8 bytes).
    Removing ti_msp_dl_config.o(.ARM.exidx.text.SYSCFG_DL_initPower), (8 bytes).
    Removing ti_msp_dl_config.o(.ARM.exidx.text.SYSCFG_DL_GPIO_init), (8 bytes).
    Removing ti_msp_dl_config.o(.ARM.exidx.text.SYSCFG_DL_SYSCTL_init), (8 bytes).
    Removing ti_msp_dl_config.o(.ARM.exidx.text.SYSCFG_DL_motor_PWM_init), (8 bytes).
    Removing ti_msp_dl_config.o(.ARM.exidx.text.SYSCFG_DL_PWM_Servo_init), (8 bytes).
    Removing ti_msp_dl_config.o(.ARM.exidx.text.SYSCFG_DL_TIMER_20ms_init), (8 bytes).
    Removing ti_msp_dl_config.o(.ARM.exidx.text.SYSCFG_DL_TIMER_1ms_init), (8 bytes).
    Removing ti_msp_dl_config.o(.ARM.exidx.text.SYSCFG_DL_UART_0_init), (8 bytes).
    Removing ti_msp_dl_config.o(.ARM.exidx.text.SYSCFG_DL_UART_1_init), (8 bytes).
    Removing ti_msp_dl_config.o(.ARM.exidx.text.SYSCFG_DL_UART_2_init), (8 bytes).
    Removing ti_msp_dl_config.o(.ARM.exidx.text.SYSCFG_DL_UART_3_init), (8 bytes).
    Removing ti_msp_dl_config.o(.ARM.exidx.text.SYSCFG_DL_SPI_W25Q64_init), (8 bytes).
    Removing ti_msp_dl_config.o(.ARM.exidx.text.SYSCFG_DL_ADC_Senor_init), (8 bytes).
    Removing ti_msp_dl_config.o(.ARM.exidx.text.SYSCFG_DL_SYSTICK_init), (8 bytes).
    Removing ti_msp_dl_config.o(.ARM.exidx.text.SYSCFG_DL_SYSCTL_CLK_init), (8 bytes).
    Removing ti_msp_dl_config.o(.text.SYSCFG_DL_saveConfiguration), (100 bytes).
    Removing ti_msp_dl_config.o(.ARM.exidx.text.SYSCFG_DL_saveConfiguration), (8 bytes).
    Removing ti_msp_dl_config.o(.text.SYSCFG_DL_restoreConfiguration), (108 bytes).
    Removing ti_msp_dl_config.o(.ARM.exidx.text.SYSCFG_DL_restoreConfiguration), (8 bytes).
    Removing main.o(.text), (0 bytes).
    Removing main.o(.ARM.exidx.text.main), (8 bytes).
    Removing main.o(.bss.k210_msg), (32 bytes).
    Removing main.o(.bss.a), (1 bytes).
    Removing main.o(.bss.b), (1 bytes).
    Removing main.o(.bss.c), (1 bytes).
    Removing main.o(.bss.d), (1 bytes).
    Removing main.o(.bss.i), (4 bytes).
    Removing main.o(.ARM.use_no_argv), (4 bytes).
    Removing bsp.o(.text), (0 bytes).
    Removing bsp.o(.text.board_init), (40 bytes).
    Removing bsp.o(.ARM.exidx.text.board_init), (8 bytes).
    Removing bsp.o(.ARM.exidx.text.bsp_init), (8 bytes).
    Removing delay.o(.text), (0 bytes).
    Removing delay.o(.ARM.exidx.text.delay_us), (8 bytes).
    Removing delay.o(.ARM.exidx.text.delay_ms), (8 bytes).
    Removing delay.o(.text.delay_1us), (48 bytes).
    Removing delay.o(.ARM.exidx.text.delay_1us), (8 bytes).
    Removing delay.o(.text.delay_1ms), (52 bytes).
    Removing delay.o(.ARM.exidx.text.delay_1ms), (8 bytes).
    Removing usart0.o(.text), (0 bytes).
    Removing usart0.o(.ARM.exidx.text.uart0_send_char), (8 bytes).
    Removing usart0.o(.text.uart0_send_string), (32 bytes).
    Removing usart0.o(.ARM.exidx.text.uart0_send_string), (8 bytes).
    Removing usart0.o(.ARM.exidx.text._sys_exit), (8 bytes).
    Removing usart0.o(.ARM.exidx.text.fputc), (8 bytes).
    Removing usart0.o(.ARM.exidx.text.UART0_IRQHandler), (8 bytes).
    Removing bsp_beep_led.o(.text), (0 bytes).
    Removing bsp_beep_led.o(.ARM.exidx.text.OPEN_MCULED), (8 bytes).
    Removing bsp_beep_led.o(.text.CLOSE_MCULED), (16 bytes).
    Removing bsp_beep_led.o(.ARM.exidx.text.CLOSE_MCULED), (8 bytes).
    Removing bsp_beep_led.o(.text.Buzzer_open_state), (12 bytes).
    Removing bsp_beep_led.o(.ARM.exidx.text.Buzzer_open_state), (8 bytes).
    Removing bsp_beep_led.o(.text.Buzzer_close_state), (12 bytes).
    Removing bsp_beep_led.o(.ARM.exidx.text.Buzzer_close_state), (8 bytes).
    Removing bsp_key.o(.text), (0 bytes).
    Removing bsp_key.o(.text.Key1_Long_Press), (40 bytes).
    Removing bsp_key.o(.ARM.exidx.text.Key1_Long_Press), (8 bytes).
    Removing bsp_key.o(.text.Key1_State), (64 bytes).
    Removing bsp_key.o(.ARM.exidx.text.Key1_State), (8 bytes).
    Removing bsp_key.o(.text.Key2_Long_Press), (40 bytes).
    Removing bsp_key.o(.ARM.exidx.text.Key2_Long_Press), (8 bytes).
    Removing bsp_key.o(.text.Key2_State), (64 bytes).
    Removing bsp_key.o(.ARM.exidx.text.Key2_State), (8 bytes).
    Removing bsp_key.o(.text.Key3_Long_Press), (40 bytes).
    Removing bsp_key.o(.ARM.exidx.text.Key3_Long_Press), (8 bytes).
    Removing bsp_key.o(.text.Key3_State), (64 bytes).
    Removing bsp_key.o(.ARM.exidx.text.Key3_State), (8 bytes).
    Removing bsp_key.o(.bss.g_key1_long_press), (2 bytes).
    Removing bsp_key.o(.bss.g_key2_long_press), (2 bytes).
    Removing bsp_key.o(.bss.g_key3_long_press), (2 bytes).
    Removing bsp_key.o(.bss.Key1_State.key1_state), (2 bytes).
    Removing bsp_key.o(.bss.Key2_State.key2_state), (2 bytes).
    Removing bsp_key.o(.bss.Key3_State.key3_state), (2 bytes).
    Removing bsp_vol_adc.o(.text), (0 bytes).
    Removing bsp_rgb.o(.text), (0 bytes).
    Removing bsp_rgb.o(.text.delay_0_25us), (2 bytes).
    Removing bsp_rgb.o(.ARM.exidx.text.delay_0_25us), (8 bytes).
    Removing bsp_rgb.o(.ARM.exidx.text.rgb_SetColor), (8 bytes).
    Removing bsp_rgb.o(.text.rgb_SetRGB), (48 bytes).
    Removing bsp_rgb.o(.ARM.exidx.text.rgb_SetRGB), (8 bytes).
    Removing bsp_rgb.o(.ARM.exidx.text.rgb_SendArray), (8 bytes).
    Removing bsp_rgb.o(.ARM.exidx.text.Ws2812b_WriteByte), (8 bytes).
    Removing bsp_rgb.o(.text.RGB_LED_Reset), (24 bytes).
    Removing bsp_rgb.o(.ARM.exidx.text.RGB_LED_Reset), (8 bytes).
    Removing bsp_infrared_light.o(.text), (0 bytes).
    Removing bsp_infrared_light.o(.text.Light_PID), (140 bytes).
    Removing bsp_infrared_light.o(.ARM.exidx.text.Light_PID), (8 bytes).
    Removing bsp_infrared_light.o(.text.Open_IR_Switch), (16 bytes).
    Removing bsp_infrared_light.o(.ARM.exidx.text.Open_IR_Switch), (8 bytes).
    Removing bsp_infrared_light.o(.text.Close_IR_Switch), (16 bytes).
    Removing bsp_infrared_light.o(.ARM.exidx.text.Close_IR_Switch), (8 bytes).
    Removing bsp_infrared_light.o(.text.IR_Open_run), (100 bytes).
    Removing bsp_infrared_light.o(.ARM.exidx.text.IR_Open_run), (8 bytes).
    Removing bsp_infrared_light.o(.ARM.exidx.text.ADC_Init), (8 bytes).
    Removing bsp_infrared_light.o(.text.Get_ADC_Value), (112 bytes).
    Removing bsp_infrared_light.o(.ARM.exidx.text.Get_ADC_Value), (8 bytes).
    Removing bsp_infrared_light.o(.text.get_light_distance), (188 bytes).
    Removing bsp_infrared_light.o(.ARM.exidx.text.get_light_distance), (8 bytes).
    Removing bsp_infrared_light.o(.ARM.exidx.text.ADC0_IRQHandler), (8 bytes).
    Removing bsp_infrared_light.o(.bss.pid_output_IRL), (4 bytes).
    Removing bsp_infrared_light.o(.bss.Light_PID.IRLight_Integral), (4 bytes).
    Removing bsp_infrared_light.o(.bss.gIRLeft), (2 bytes).
    Removing bsp_infrared_light.o(.bss.gIRRight), (2 bytes).
    Removing bsp_infrared_light.o(.bss.gLightLeft), (2 bytes).
    Removing bsp_infrared_light.o(.bss.gLightRight), (2 bytes).
    Removing bsp_infrared_light.o(.bss.gvol), (2 bytes).
    Removing bsp_ir_receiver.o(.text), (0 bytes).
    Removing bsp_ir_receiver.o(.ARM.exidx.text.infrared_config), (8 bytes).
    Removing bsp_ir_receiver.o(.text.get_infrared_low_time), (56 bytes).
    Removing bsp_ir_receiver.o(.ARM.exidx.text.get_infrared_low_time), (8 bytes).
    Removing bsp_ir_receiver.o(.text.get_infrared_high_time), (52 bytes).
    Removing bsp_ir_receiver.o(.ARM.exidx.text.get_infrared_high_time), (8 bytes).
    Removing bsp_ir_receiver.o(.text.guide_and_repeat_code_judgment), (116 bytes).
    Removing bsp_ir_receiver.o(.ARM.exidx.text.guide_and_repeat_code_judgment), (8 bytes).
    Removing bsp_ir_receiver.o(.text.infrared_data_true_judgment), (76 bytes).
    Removing bsp_ir_receiver.o(.ARM.exidx.text.infrared_data_true_judgment), (8 bytes).
    Removing bsp_ir_receiver.o(.ARM.exidx.text.receiving_infrared_data), (8 bytes).
    Removing bsp_ir_receiver.o(.text.get_infrared_command), (12 bytes).
    Removing bsp_ir_receiver.o(.ARM.exidx.text.get_infrared_command), (8 bytes).
    Removing bsp_ir_receiver.o(.text.clear_infrared_command), (12 bytes).
    Removing bsp_ir_receiver.o(.ARM.exidx.text.clear_infrared_command), (8 bytes).
    Removing bsp_motor.o(.text), (0 bytes).
    Removing bsp_motor.o(.ARM.exidx.text.Init_Motor_PWM), (8 bytes).
    Removing bsp_motor.o(.text.speed_limit), (24 bytes).
    Removing bsp_motor.o(.ARM.exidx.text.speed_limit), (8 bytes).
    Removing bsp_motor.o(.text.myabs), (8 bytes).
    Removing bsp_motor.o(.ARM.exidx.text.myabs), (8 bytes).
    Removing bsp_motor.o(.ARM.exidx.text.PWM_Control_Car), (8 bytes).
    Removing bsp_motor.o(.text.L1_control), (52 bytes).
    Removing bsp_motor.o(.ARM.exidx.text.L1_control), (8 bytes).
    Removing bsp_motor.o(.text.R1_control), (52 bytes).
    Removing bsp_motor.o(.ARM.exidx.text.R1_control), (8 bytes).
    Removing bsp_motor.o(.ARM.exidx.text.Motor_Stop), (8 bytes).
    Removing bsp_motor.o(.text.Motor_Run), (64 bytes).
    Removing bsp_motor.o(.ARM.exidx.text.Motor_Run), (8 bytes).
    Removing bsp_motor.o(.text.Motor_Back), (72 bytes).
    Removing bsp_motor.o(.ARM.exidx.text.Motor_Back), (8 bytes).
    Removing bsp_motor.o(.text.Motor_Left), (132 bytes).
    Removing bsp_motor.o(.ARM.exidx.text.Motor_Left), (8 bytes).
    Removing bsp_motor.o(.text.Motor_Right), (128 bytes).
    Removing bsp_motor.o(.ARM.exidx.text.Motor_Right), (8 bytes).
    Removing bsp_encoder.o(.text), (0 bytes).
    Removing bsp_encoder.o(.ARM.exidx.text.encoder_init), (8 bytes).
    Removing bsp_encoder.o(.text.get_encoderL_dir), (12 bytes).
    Removing bsp_encoder.o(.ARM.exidx.text.get_encoderL_dir), (8 bytes).
    Removing bsp_encoder.o(.text.get_encoderR_dir), (12 bytes).
    Removing bsp_encoder.o(.ARM.exidx.text.get_encoderR_dir), (8 bytes).
    Removing bsp_encoder.o(.ARM.exidx.text.Encoder_Get_ALL), (8 bytes).
    Removing bsp_encoder.o(.text.Encoder_Get_Temp), (24 bytes).
    Removing bsp_encoder.o(.ARM.exidx.text.Encoder_Get_Temp), (8 bytes).
    Removing bsp_encoder.o(.ARM.exidx.text.encoder_update), (8 bytes).
    Removing bsp_encoder.o(.ARM.exidx.text.GROUP1_IRQHandler), (8 bytes).
    Removing bsp_encoder.o(.bss.g_Encoder_M1_Now), (4 bytes).
    Removing bsp_encoder.o(.bss.g_Encoder_M2_Now), (4 bytes).
    Removing bsp_timer.o(.text), (0 bytes).
    Removing bsp_timer.o(.ARM.exidx.text.Timer_20ms_Init), (8 bytes).
    Removing bsp_timer.o(.ARM.exidx.text.TIMG0_IRQHandler), (8 bytes).
    Removing oled.o(.text), (0 bytes).
    Removing oled.o(.text.OLED_ColorTurn), (24 bytes).
    Removing oled.o(.ARM.exidx.text.OLED_ColorTurn), (8 bytes).
    Removing oled.o(.ARM.exidx.text.OLED_WR_Byte), (8 bytes).
    Removing oled.o(.text.OLED_DisplayTurn), (38 bytes).
    Removing oled.o(.ARM.exidx.text.OLED_DisplayTurn), (8 bytes).
    Removing oled.o(.text.IIC_delay), (10 bytes).
    Removing oled.o(.ARM.exidx.text.IIC_delay), (8 bytes).
    Removing oled.o(.text.I2C_Start), (48 bytes).
    Removing oled.o(.ARM.exidx.text.I2C_Start), (8 bytes).
    Removing oled.o(.text.I2C_Stop), (28 bytes).
    Removing oled.o(.ARM.exidx.text.I2C_Stop), (8 bytes).
    Removing oled.o(.text.I2C_WaitAck), (44 bytes).
    Removing oled.o(.ARM.exidx.text.I2C_WaitAck), (8 bytes).
    Removing oled.o(.ARM.exidx.text.Send_Byte), (8 bytes).
    Removing oled.o(.text.OLED_DisPlay_On), (30 bytes).
    Removing oled.o(.ARM.exidx.text.OLED_DisPlay_On), (8 bytes).
    Removing oled.o(.text.OLED_DisPlay_Off), (30 bytes).
    Removing oled.o(.ARM.exidx.text.OLED_DisPlay_Off), (8 bytes).
    Removing oled.o(.ARM.exidx.text.OLED_Refresh), (8 bytes).
    Removing oled.o(.text.OLED_Clear), (68 bytes).
    Removing oled.o(.ARM.exidx.text.OLED_Clear), (8 bytes).
    Removing oled.o(.text.OLED_DrawPoint), (40 bytes).
    Removing oled.o(.ARM.exidx.text.OLED_DrawPoint), (8 bytes).
    Removing oled.o(.text.OLED_DrawLine), (228 bytes).
    Removing oled.o(.ARM.exidx.text.OLED_DrawLine), (8 bytes).
    Removing oled.o(.text.OLED_DrawCircle), (252 bytes).
    Removing oled.o(.ARM.exidx.text.OLED_DrawCircle), (8 bytes).
    Removing oled.o(.text.OLED_ShowChar), (268 bytes).
    Removing oled.o(.ARM.exidx.text.OLED_ShowChar), (8 bytes).
    Removing oled.o(.text.OLED_ShowString), (80 bytes).
    Removing oled.o(.ARM.exidx.text.OLED_ShowString), (8 bytes).
    Removing oled.o(.text.OLED_Pow), (18 bytes).
    Removing oled.o(.ARM.exidx.text.OLED_Pow), (8 bytes).
    Removing oled.o(.text.OLED_ShowNum), (114 bytes).
    Removing oled.o(.ARM.exidx.text.OLED_ShowNum), (8 bytes).
    Removing oled.o(.text.OLED_ShowChinese), (256 bytes).
    Removing oled.o(.ARM.exidx.text.OLED_ShowChinese), (8 bytes).
    Removing oled.o(.text.OLED_ScrollDisplay), (312 bytes).
    Removing oled.o(.ARM.exidx.text.OLED_ScrollDisplay), (8 bytes).
    Removing oled.o(.text.OLED_ShowPicture), (228 bytes).
    Removing oled.o(.ARM.exidx.text.OLED_ShowPicture), (8 bytes).
    Removing oled.o(.ARM.exidx.text.OLED_Init), (8 bytes).
    Removing oled.o(.text.OLED_Draw_Line), (548 bytes).
    Removing oled.o(.ARM.exidx.text.OLED_Draw_Line), (8 bytes).
    Removing oled.o(.rodata.asc2_1206), (1140 bytes).
    Removing oled.o(.rodata.asc2_1608), (1520 bytes).
    Removing oled.o(.rodata.asc2_2412), (3420 bytes).
    Removing oled.o(.rodata.Hzk1), (352 bytes).
    Removing oled.o(.rodata.Hzk2), (72 bytes).
    Removing oled.o(.rodata.Hzk3), (128 bytes).
    Removing oled.o(.rodata.Hzk4), (512 bytes).
    Removing bsp_flash_w25q64.o(.text), (0 bytes).
    Removing bsp_flash_w25q64.o(.text.W25Q64_Init), (64 bytes).
    Removing bsp_flash_w25q64.o(.ARM.exidx.text.W25Q64_Init), (8 bytes).
    Removing bsp_flash_w25q64.o(.text.Spi_Flash_ReadID), (168 bytes).
    Removing bsp_flash_w25q64.o(.ARM.exidx.text.Spi_Flash_ReadID), (8 bytes).
    Removing bsp_flash_w25q64.o(.text.Spi_Flash_Exit4ByteMode), (52 bytes).
    Removing bsp_flash_w25q64.o(.ARM.exidx.text.Spi_Flash_Exit4ByteMode), (8 bytes).
    Removing bsp_flash_w25q64.o(.text.SPI_Read_Write_Byte), (32 bytes).
    Removing bsp_flash_w25q64.o(.ARM.exidx.text.SPI_Read_Write_Byte), (8 bytes).
    Removing bsp_flash_w25q64.o(.text.SPI_Flash_ReadSR), (92 bytes).
    Removing bsp_flash_w25q64.o(.ARM.exidx.text.SPI_Flash_ReadSR), (8 bytes).
    Removing bsp_flash_w25q64.o(.text.Spi_Flash_Read_SR), (72 bytes).
    Removing bsp_flash_w25q64.o(.ARM.exidx.text.Spi_Flash_Read_SR), (8 bytes).
    Removing bsp_flash_w25q64.o(.text.Spi_Flash_Write_SR), (68 bytes).
    Removing bsp_flash_w25q64.o(.ARM.exidx.text.Spi_Flash_Write_SR), (8 bytes).
    Removing bsp_flash_w25q64.o(.text.Spi_Flash_Write_Enable), (44 bytes).
    Removing bsp_flash_w25q64.o(.ARM.exidx.text.Spi_Flash_Write_Enable), (8 bytes).
    Removing bsp_flash_w25q64.o(.text.Spi_Flash_Write_Disable), (44 bytes).
    Removing bsp_flash_w25q64.o(.ARM.exidx.text.Spi_Flash_Write_Disable), (8 bytes).
    Removing bsp_flash_w25q64.o(.text.Spi_Flash_ReadID_two), (100 bytes).
    Removing bsp_flash_w25q64.o(.ARM.exidx.text.Spi_Flash_ReadID_two), (8 bytes).
    Removing bsp_flash_w25q64.o(.text.Spi_Flash_Read), (160 bytes).
    Removing bsp_flash_w25q64.o(.ARM.exidx.text.Spi_Flash_Read), (8 bytes).
    Removing bsp_flash_w25q64.o(.text.Spi_Flash_Write_Page), (244 bytes).
    Removing bsp_flash_w25q64.o(.ARM.exidx.text.Spi_Flash_Write_Page), (8 bytes).
    Removing bsp_flash_w25q64.o(.text.Spi_Flash_Wait_Busy), (76 bytes).
    Removing bsp_flash_w25q64.o(.ARM.exidx.text.Spi_Flash_Wait_Busy), (8 bytes).
    Removing bsp_flash_w25q64.o(.text.Spi_Flash_Write_NoCheck), (92 bytes).
    Removing bsp_flash_w25q64.o(.ARM.exidx.text.Spi_Flash_Write_NoCheck), (8 bytes).
    Removing bsp_flash_w25q64.o(.text.Spi_Flash_Write), (324 bytes).
    Removing bsp_flash_w25q64.o(.ARM.exidx.text.Spi_Flash_Write), (8 bytes).
    Removing bsp_flash_w25q64.o(.text.Spi_Flash_Erase_Sector), (260 bytes).
    Removing bsp_flash_w25q64.o(.ARM.exidx.text.Spi_Flash_Erase_Sector), (8 bytes).
    Removing bsp_flash_w25q64.o(.text.Spi_Flash_Erase_Chip), (184 bytes).
    Removing bsp_flash_w25q64.o(.ARM.exidx.text.Spi_Flash_Erase_Chip), (8 bytes).
    Removing bsp_flash_w25q64.o(.text.Spi_Flash_BlockErase_Sector), (252 bytes).
    Removing bsp_flash_w25q64.o(.ARM.exidx.text.Spi_Flash_BlockErase_Sector), (8 bytes).
    Removing bsp_flash_w25q64.o(.text.Spi_Flash_Power_Down), (52 bytes).
    Removing bsp_flash_w25q64.o(.ARM.exidx.text.Spi_Flash_Power_Down), (8 bytes).
    Removing bsp_flash_w25q64.o(.text.Spi_Flash_WAKEUP), (52 bytes).
    Removing bsp_flash_w25q64.o(.ARM.exidx.text.Spi_Flash_WAKEUP), (8 bytes).
    Removing bsp_flash_w25q64.o(.data.SPI_FLASH_TYPE), (2 bytes).
    Removing bsp_flash_w25q64.o(.bss.SPI_FLASH_BUF), (4096 bytes).
    Removing bsp_ultrasonic.o(.text), (0 bytes).
    Removing bsp_ultrasonic.o(.ARM.exidx.text.Ultrasonic_Init), (8 bytes).
    Removing bsp_ultrasonic.o(.text.Open_Timer), (32 bytes).
    Removing bsp_ultrasonic.o(.ARM.exidx.text.Open_Timer), (8 bytes).
    Removing bsp_ultrasonic.o(.text.Get_TIMER_Count), (40 bytes).
    Removing bsp_ultrasonic.o(.ARM.exidx.text.Get_TIMER_Count), (8 bytes).
    Removing bsp_ultrasonic.o(.text.Close_Timer), (16 bytes).
    Removing bsp_ultrasonic.o(.ARM.exidx.text.Close_Timer), (8 bytes).
    Removing bsp_ultrasonic.o(.ARM.exidx.text.TIMA1_IRQHandler), (8 bytes).
    Removing bsp_ultrasonic.o(.text.Hcsr04GetLength), (244 bytes).
    Removing bsp_ultrasonic.o(.ARM.exidx.text.Hcsr04GetLength), (8 bytes).
    Removing bsp_ultrasonic.o(.text.get_servo_distance), (152 bytes).
    Removing bsp_ultrasonic.o(.ARM.exidx.text.get_servo_distance), (8 bytes).
    Removing bsp_ultrasonic.o(.text.get_distance), (48 bytes).
    Removing bsp_ultrasonic.o(.ARM.exidx.text.get_distance), (8 bytes).
    Removing bsp_ultrasonic.o(.bss.distance), (4 bytes).
    Removing bsp_ultrasonic.o(.bss.t), (4 bytes).
    Removing bsp_servo.o(.text), (0 bytes).
    Removing bsp_servo.o(.ARM.exidx.text.servo_init), (8 bytes).
    Removing bsp_servo.o(.text.Set_Servo270_Angle), (92 bytes).
    Removing bsp_servo.o(.ARM.exidx.text.Set_Servo270_Angle), (8 bytes).
    Removing bsp_servo.o(.ARM.exidx.text.Set_Servo_Angle), (8 bytes).
    Removing bsp_servo.o(.text.Get_Servo_Angle), (12 bytes).
    Removing bsp_servo.o(.ARM.exidx.text.Get_Servo_Angle), (8 bytes).
    Removing bsp_servo.o(.text.Get_Servo_Angle270), (12 bytes).
    Removing bsp_servo.o(.ARM.exidx.text.Get_Servo_Angle270), (8 bytes).
    Removing bsp_servo.o(.text.get_servo), (136 bytes).
    Removing bsp_servo.o(.ARM.exidx.text.get_servo), (8 bytes).
    Removing bsp_servo.o(.bss.Servo_Angle270), (4 bytes).
    Removing bsp_usart2.o(.text), (0 bytes).
    Removing bsp_usart2.o(.ARM.exidx.text.usart2_init), (8 bytes).
    Removing bsp_usart2.o(.text.uart2_send_char), (16 bytes).
    Removing bsp_usart2.o(.ARM.exidx.text.uart2_send_char), (8 bytes).
    Removing bsp_usart2.o(.text.uart2_send_string), (32 bytes).
    Removing bsp_usart2.o(.ARM.exidx.text.uart2_send_string), (8 bytes).
    Removing bsp_usart2.o(.ARM.exidx.text.UART2_IRQHandler), (8 bytes).
    Removing bsp_usart2.o(.bss.receivedData2), (1 bytes).
    Removing bsp_usart3.o(.text), (0 bytes).
    Removing bsp_usart3.o(.ARM.exidx.text.usart3_init), (8 bytes).
    Removing bsp_usart3.o(.ARM.exidx.text.RingBuff_Init), (8 bytes).
    Removing bsp_usart3.o(.text.uart3_send_char), (16 bytes).
    Removing bsp_usart3.o(.ARM.exidx.text.uart3_send_char), (8 bytes).
    Removing bsp_usart3.o(.text.uart3_send_string), (32 bytes).
    Removing bsp_usart3.o(.ARM.exidx.text.uart3_send_string), (8 bytes).
    Removing bsp_usart3.o(.text.Write_RingBuff), (38 bytes).
    Removing bsp_usart3.o(.ARM.exidx.text.Write_RingBuff), (8 bytes).
    Removing bsp_usart3.o(.text.Read_RingBuff), (44 bytes).
    Removing bsp_usart3.o(.ARM.exidx.text.Read_RingBuff), (8 bytes).
    Removing bsp_usart3.o(.ARM.exidx.text.UART3_IRQHandler), (8 bytes).
    Removing bsp_usart3.o(.bss.Uart1_RingBuff), (206 bytes).
    Removing bsp_usart3.o(.bss.Uart0_RingBuff), (206 bytes).
    Removing bsp_usart_voice.o(.text), (0 bytes).
    Removing bsp_usart_voice.o(.text.get_voice), (72 bytes).
    Removing bsp_usart_voice.o(.ARM.exidx.text.get_voice), (8 bytes).
    Removing bsp_usart_voice.o(.ARM.exidx.text.Processing_Data), (8 bytes).
    Removing bsp_usart_voice.o(.text.Write_Data), (28 bytes).
    Removing bsp_usart_voice.o(.ARM.exidx.text.Write_Data), (8 bytes).
    Removing bsp_usart_voice.o(.bss.voice), (5 bytes).
    Removing bsp_usart_voice.o(.bss.voice_data1), (10 bytes).
    Removing bsp_usart_voice.o(.bss.voice_data2), (10 bytes).
    Removing k210_use.o(.text), (0 bytes).
    Removing k210_use.o(.text.recv_k210msg), (248 bytes).
    Removing k210_use.o(.ARM.exidx.text.recv_k210msg), (8 bytes).
    Removing k210_use.o(.text.deal_recvmsg), (120 bytes).
    Removing k210_use.o(.ARM.exidx.text.deal_recvmsg), (8 bytes).
    Removing k210_use.o(.text.deal_data), (412 bytes).
    Removing k210_use.o(.ARM.exidx.text.deal_data), (8 bytes).
    Removing k210_use.o(.text.k210_receiver), (96 bytes).
    Removing k210_use.o(.ARM.exidx.text.k210_receiver), (8 bytes).
    Removing k210_use.o(.bss.buf_msg), (100 bytes).
    Removing k210_use.o(.bss.new_flag), (1 bytes).
    Removing k210_use.o(.bss.r_index), (1 bytes).
    Removing k210_use.o(.bss.buf_crc), (2 bytes).
    Removing k210_use.o(.bss.tou_flag), (1 bytes).
    Removing k210_use.o(.bss.len_flag), (1 bytes).
    Removing k210_use.o(.bss.buf_len), (1 bytes).
    Removing k210_use.o(.bss.data), (50 bytes).
    Removing k210_use.o(.bss.buff_com), (50 bytes).
    Removing app_rgb.o(.text), (0 bytes).
    Removing app_rgb.o(.ARM.exidx.text.app_color), (8 bytes).
    Removing app_rgb.o(.text.Control_RGB_ALL), (48 bytes).
    Removing app_rgb.o(.ARM.exidx.text.Control_RGB_ALL), (8 bytes).
    Removing app_rgb.o(.rodata.str4.4), (28 bytes).
    Removing app_irremote.o(.text), (0 bytes).
    Removing app_irremote.o(.text.Printf_Irremote), (52 bytes).
    Removing app_irremote.o(.ARM.exidx.text.Printf_Irremote), (8 bytes).
    Removing app_irremote.o(.text.IR_Control_Car), (112 bytes).
    Removing app_irremote.o(.ARM.exidx.text.IR_Control_Car), (8 bytes).
    Removing app_irremote.o(.data.get_CarState), (1 bytes).
    Removing app_irremote.o(.data.gIRdata), (1 bytes).
    Removing app_motor.o(.text), (0 bytes).
    Removing app_motor.o(.text.Motion_Get_Data), (40 bytes).
    Removing app_motor.o(.ARM.exidx.text.Motion_Get_Data), (8 bytes).
    Removing app_motor.o(.text.Motion_Get_Motor_Speed), (16 bytes).
    Removing app_motor.o(.ARM.exidx.text.Motion_Get_Motor_Speed), (8 bytes).
    Removing app_motor.o(.text.Motion_Set_Yaw_Adjust), (16 bytes).
    Removing app_motor.o(.ARM.exidx.text.Motion_Set_Yaw_Adjust), (8 bytes).
    Removing app_motor.o(.text.Motion_Get_Yaw_Adjust), (12 bytes).
    Removing app_motor.o(.ARM.exidx.text.Motion_Get_Yaw_Adjust), (8 bytes).
    Removing app_motor.o(.text.Motion_Stop), (80 bytes).
    Removing app_motor.o(.ARM.exidx.text.Motion_Stop), (8 bytes).
    Removing app_motor.o(.text.Motion_Set_Speed), (52 bytes).
    Removing app_motor.o(.ARM.exidx.text.Motion_Set_Speed), (8 bytes).
    Removing app_motor.o(.text.Motion_Yaw_Calc), (140 bytes).
    Removing app_motor.o(.ARM.exidx.text.Motion_Yaw_Calc), (8 bytes).
    Removing app_motor.o(.text.Wheel_Yaw_Calc), (140 bytes).
    Removing app_motor.o(.ARM.exidx.text.Wheel_Yaw_Calc), (8 bytes).
    Removing app_motor.o(.ARM.exidx.text.Motion_Get_Speed), (8 bytes).
    Removing app_motor.o(.text.Motion_Get_Circle_MM), (8 bytes).
    Removing app_motor.o(.ARM.exidx.text.Motion_Get_Circle_MM), (8 bytes).
    Removing app_motor.o(.text.Motion_Get_APB), (8 bytes).
    Removing app_motor.o(.ARM.exidx.text.Motion_Get_APB), (8 bytes).
    Removing app_motor.o(.text.Motion_Get_Encoder), (44 bytes).
    Removing app_motor.o(.ARM.exidx.text.Motion_Get_Encoder), (8 bytes).
    Removing app_motor.o(.ARM.exidx.text.Motion_Ctrl), (8 bytes).
    Removing app_motor.o(.ARM.exidx.text.wheel_Ctrl), (8 bytes).
    Removing app_motor.o(.text.Motion_Ctrl_State), (14 bytes).
    Removing app_motor.o(.ARM.exidx.text.Motion_Ctrl_State), (8 bytes).
    Removing app_motor.o(.text.wheel_State_YAW), (272 bytes).
    Removing app_motor.o(.ARM.exidx.text.wheel_State_YAW), (8 bytes).
    Removing app_motor.o(.ARM.exidx.text.wheel_State), (8 bytes).
    Removing app_motor.o(.ARM.exidx.text.Motion_Handle), (8 bytes).
    Removing bsp_pid_motor.o(.text), (0 bytes).
    Removing bsp_pid_motor.o(.ARM.exidx.text.PID_Param_Init), (8 bytes).
    Removing bsp_pid_motor.o(.text.PID_Set_Parm), (6 bytes).
    Removing bsp_pid_motor.o(.ARM.exidx.text.PID_Set_Parm), (8 bytes).
    Removing bsp_pid_motor.o(.text.PID_Set_Target), (4 bytes).
    Removing bsp_pid_motor.o(.ARM.exidx.text.PID_Set_Target), (8 bytes).
    Removing bsp_pid_motor.o(.text.PID_Get_Target), (4 bytes).
    Removing bsp_pid_motor.o(.ARM.exidx.text.PID_Get_Target), (8 bytes).
    Removing bsp_pid_motor.o(.ARM.exidx.text.PID_Incre_Calc), (8 bytes).
    Removing bsp_pid_motor.o(.text.PID_Location_Calc), (208 bytes).
    Removing bsp_pid_motor.o(.ARM.exidx.text.PID_Location_Calc), (8 bytes).
    Removing bsp_pid_motor.o(.ARM.exidx.text.PID_Calc_Motor), (8 bytes).
    Removing bsp_pid_motor.o(.text.PID_Calc_One_Motor), (28 bytes).
    Removing bsp_pid_motor.o(.ARM.exidx.text.PID_Calc_One_Motor), (8 bytes).
    Removing bsp_pid_motor.o(.text.PID_Set_Motor_Parm), (48 bytes).
    Removing bsp_pid_motor.o(.ARM.exidx.text.PID_Set_Motor_Parm), (8 bytes).
    Removing bsp_pid_motor.o(.ARM.exidx.text.PID_Clear_Motor), (8 bytes).
    Removing bsp_pid_motor.o(.ARM.exidx.text.PID_Set_Motor_Target), (8 bytes).
    Removing bsp_pid_motor.o(.text.Pid_Get_Motor), (8 bytes).
    Removing bsp_pid_motor.o(.ARM.exidx.text.Pid_Get_Motor), (8 bytes).
    Removing bsp_pid_motor.o(.text.PID_Yaw_Reset), (20 bytes).
    Removing bsp_pid_motor.o(.ARM.exidx.text.PID_Yaw_Reset), (8 bytes).
    Removing bsp_pid_motor.o(.text.PID_Yaw_Calc), (144 bytes).
    Removing bsp_pid_motor.o(.ARM.exidx.text.PID_Yaw_Calc), (8 bytes).
    Removing bsp_pid_motor.o(.text.PID_Yaw_Set_Parm), (12 bytes).
    Removing bsp_pid_motor.o(.ARM.exidx.text.PID_Yaw_Set_Parm), (8 bytes).
    Removing app_ir_track.o(.text), (0 bytes).
    Removing app_ir_track.o(.ARM.exidx.text.Track_PID), (8 bytes).
    Removing app_ir_track.o(.ARM.exidx.text.LineWalking), (8 bytes).
    Removing app_bluetooth.o(.text), (0 bytes).
    Removing app_bluetooth.o(.ARM.exidx.text.Deal_Bluetooth), (8 bytes).
    Removing app_bluetooth.o(.text.Copy_Bluetooth_Data), (40 bytes).
    Removing app_bluetooth.o(.ARM.exidx.text.Copy_Bluetooth_Data), (8 bytes).
    Removing app_bluetooth.o(.text.StringFind), (86 bytes).
    Removing app_bluetooth.o(.ARM.exidx.text.StringFind), (8 bytes).
    Removing app_bluetooth.o(.text.Get_Data), (128 bytes).
    Removing app_bluetooth.o(.ARM.exidx.text.Get_Data), (8 bytes).
    Removing app_bluetooth.o(.ARM.exidx.text.Deal_Motor_Data), (8 bytes).
    Removing app_bluetooth.o(.text.Deal_RGB_Data), (2 bytes).
    Removing app_bluetooth.o(.ARM.exidx.text.Deal_RGB_Data), (8 bytes).
    Removing app_bluetooth.o(.ARM.exidx.text.USE_Bluetooth_Control), (8 bytes).
    Removing bsp_bluetooth.o(.text), (0 bytes).
    Removing bsp_bluetooth.o(.ARM.exidx.text.bluetooth_init), (8 bytes).
    Removing bsp_bluetooth.o(.text.uart1_send_char), (16 bytes).
    Removing bsp_bluetooth.o(.ARM.exidx.text.uart1_send_char), (8 bytes).
    Removing bsp_bluetooth.o(.text.uart1_send_string), (32 bytes).
    Removing bsp_bluetooth.o(.ARM.exidx.text.uart1_send_string), (8 bytes).
    Removing bsp_bluetooth.o(.ARM.exidx.text.UART1_IRQHandler), (8 bytes).
    Removing bsp_bluetooth.o(.bss.recv1_buff), (200 bytes).
    Removing bsp_bluetooth.o(.bss.recv1_length), (2 bytes).
    Removing bsp_bluetooth.o(.bss.recv1_flag), (1 bytes).
    Removing dl_adc12.o(.text), (0 bytes).
    Removing dl_adc12.o(.ARM.exidx.text.DL_ADC12_setClockConfig), (8 bytes).
    Removing dl_adc12.o(.text.DL_ADC12_getClockConfig), (40 bytes).
    Removing dl_adc12.o(.ARM.exidx.text.DL_ADC12_getClockConfig), (8 bytes).
    Removing dl_common.o(.text), (0 bytes).
    Removing dl_common.o(.ARM.exidx.text.DL_Common_delayCycles), (8 bytes).
    Removing dl_spi.o(.text), (0 bytes).
    Removing dl_spi.o(.ARM.exidx.text.DL_SPI_init), (8 bytes).
    Removing dl_spi.o(.ARM.exidx.text.DL_SPI_setClockConfig), (8 bytes).
    Removing dl_spi.o(.text.DL_SPI_getClockConfig), (16 bytes).
    Removing dl_spi.o(.ARM.exidx.text.DL_SPI_getClockConfig), (8 bytes).
    Removing dl_spi.o(.text.DL_SPI_receiveDataBlocking8), (20 bytes).
    Removing dl_spi.o(.ARM.exidx.text.DL_SPI_receiveDataBlocking8), (8 bytes).
    Removing dl_spi.o(.text.DL_SPI_receiveDataBlocking16), (20 bytes).
    Removing dl_spi.o(.ARM.exidx.text.DL_SPI_receiveDataBlocking16), (8 bytes).
    Removing dl_spi.o(.text.DL_SPI_receiveDataBlocking32), (20 bytes).
    Removing dl_spi.o(.ARM.exidx.text.DL_SPI_receiveDataBlocking32), (8 bytes).
    Removing dl_spi.o(.text.DL_SPI_transmitDataBlocking8), (20 bytes).
    Removing dl_spi.o(.ARM.exidx.text.DL_SPI_transmitDataBlocking8), (8 bytes).
    Removing dl_spi.o(.text.DL_SPI_transmitDataBlocking16), (20 bytes).
    Removing dl_spi.o(.ARM.exidx.text.DL_SPI_transmitDataBlocking16), (8 bytes).
    Removing dl_spi.o(.text.DL_SPI_transmitDataBlocking32), (20 bytes).
    Removing dl_spi.o(.ARM.exidx.text.DL_SPI_transmitDataBlocking32), (8 bytes).
    Removing dl_spi.o(.text.DL_SPI_receiveDataCheck8), (28 bytes).
    Removing dl_spi.o(.ARM.exidx.text.DL_SPI_receiveDataCheck8), (8 bytes).
    Removing dl_spi.o(.text.DL_SPI_receiveDataCheck16), (28 bytes).
    Removing dl_spi.o(.ARM.exidx.text.DL_SPI_receiveDataCheck16), (8 bytes).
    Removing dl_spi.o(.text.DL_SPI_receiveDataCheck32), (28 bytes).
    Removing dl_spi.o(.ARM.exidx.text.DL_SPI_receiveDataCheck32), (8 bytes).
    Removing dl_spi.o(.text.DL_SPI_transmitDataCheck8), (24 bytes).
    Removing dl_spi.o(.ARM.exidx.text.DL_SPI_transmitDataCheck8), (8 bytes).
    Removing dl_spi.o(.text.DL_SPI_transmitDataCheck16), (24 bytes).
    Removing dl_spi.o(.ARM.exidx.text.DL_SPI_transmitDataCheck16), (8 bytes).
    Removing dl_spi.o(.text.DL_SPI_transmitDataCheck32), (24 bytes).
    Removing dl_spi.o(.ARM.exidx.text.DL_SPI_transmitDataCheck32), (8 bytes).
    Removing dl_spi.o(.text.DL_SPI_drainRXFIFO8), (40 bytes).
    Removing dl_spi.o(.ARM.exidx.text.DL_SPI_drainRXFIFO8), (8 bytes).
    Removing dl_spi.o(.text.DL_SPI_drainRXFIFO16), (44 bytes).
    Removing dl_spi.o(.ARM.exidx.text.DL_SPI_drainRXFIFO16), (8 bytes).
    Removing dl_spi.o(.text.DL_SPI_drainRXFIFO32), (40 bytes).
    Removing dl_spi.o(.ARM.exidx.text.DL_SPI_drainRXFIFO32), (8 bytes).
    Removing dl_spi.o(.text.DL_SPI_fillTXFIFO8), (40 bytes).
    Removing dl_spi.o(.ARM.exidx.text.DL_SPI_fillTXFIFO8), (8 bytes).
    Removing dl_spi.o(.text.DL_SPI_fillTXFIFO16), (44 bytes).
    Removing dl_spi.o(.ARM.exidx.text.DL_SPI_fillTXFIFO16), (8 bytes).
    Removing dl_spi.o(.text.DL_SPI_saveConfiguration), (80 bytes).
    Removing dl_spi.o(.ARM.exidx.text.DL_SPI_saveConfiguration), (8 bytes).
    Removing dl_spi.o(.text.DL_SPI_restoreConfiguration), (112 bytes).
    Removing dl_spi.o(.ARM.exidx.text.DL_SPI_restoreConfiguration), (8 bytes).
    Removing dl_spi.o(.text.DL_SPI_fillTXFIFO32), (40 bytes).
    Removing dl_spi.o(.ARM.exidx.text.DL_SPI_fillTXFIFO32), (8 bytes).
    Removing dl_timer.o(.text), (0 bytes).
    Removing dl_timer.o(.ARM.exidx.text.DL_Timer_setClockConfig), (8 bytes).
    Removing dl_timer.o(.text.DL_Timer_getClockConfig), (28 bytes).
    Removing dl_timer.o(.ARM.exidx.text.DL_Timer_getClockConfig), (8 bytes).
    Removing dl_timer.o(.ARM.exidx.text.DL_Timer_initTimerMode), (8 bytes).
    Removing dl_timer.o(.ARM.exidx.text.DL_Timer_setCaptureCompareValue), (8 bytes).
    Removing dl_timer.o(.text.DL_Timer_setCaptureCompareCtl), (40 bytes).
    Removing dl_timer.o(.ARM.exidx.text.DL_Timer_setCaptureCompareCtl), (8 bytes).
    Removing dl_timer.o(.text.DL_Timer_initCaptureMode), (272 bytes).
    Removing dl_timer.o(.ARM.exidx.text.DL_Timer_initCaptureMode), (8 bytes).
    Removing dl_timer.o(.text.DL_Timer_setCaptureCompareInput), (26 bytes).
    Removing dl_timer.o(.ARM.exidx.text.DL_Timer_setCaptureCompareInput), (8 bytes).
    Removing dl_timer.o(.text.DL_Timer_initCaptureTriggerMode), (124 bytes).
    Removing dl_timer.o(.ARM.exidx.text.DL_Timer_initCaptureTriggerMode), (8 bytes).
    Removing dl_timer.o(.text.DL_Timer_initCaptureCombinedMode), (232 bytes).
    Removing dl_timer.o(.ARM.exidx.text.DL_Timer_initCaptureCombinedMode), (8 bytes).
    Removing dl_timer.o(.text.DL_Timer_initCompareMode), (168 bytes).
    Removing dl_timer.o(.ARM.exidx.text.DL_Timer_initCompareMode), (8 bytes).
    Removing dl_timer.o(.text.DL_Timer_initCompareTriggerMode), (112 bytes).
    Removing dl_timer.o(.ARM.exidx.text.DL_Timer_initCompareTriggerMode), (8 bytes).
    Removing dl_timer.o(.text.DL_Timer_getCaptureCompareValue), (16 bytes).
    Removing dl_timer.o(.ARM.exidx.text.DL_Timer_getCaptureCompareValue), (8 bytes).
    Removing dl_timer.o(.text.DL_Timer_getCaptureCompareCtl), (24 bytes).
    Removing dl_timer.o(.ARM.exidx.text.DL_Timer_getCaptureCompareCtl), (8 bytes).
    Removing dl_timer.o(.text.DL_Timer_setSecondCompSrcDn), (28 bytes).
    Removing dl_timer.o(.ARM.exidx.text.DL_Timer_setSecondCompSrcDn), (8 bytes).
    Removing dl_timer.o(.text.DL_Timer_getSecondCompSrcDn), (20 bytes).
    Removing dl_timer.o(.ARM.exidx.text.DL_Timer_getSecondCompSrcDn), (8 bytes).
    Removing dl_timer.o(.text.DL_Timer_setSecondCompSrcUp), (28 bytes).
    Removing dl_timer.o(.ARM.exidx.text.DL_Timer_setSecondCompSrcUp), (8 bytes).
    Removing dl_timer.o(.text.DL_Timer_getSecondCompSrcUp), (20 bytes).
    Removing dl_timer.o(.ARM.exidx.text.DL_Timer_getSecondCompSrcUp), (8 bytes).
    Removing dl_timer.o(.text.DL_Timer_setSecondCompActionDn), (28 bytes).
    Removing dl_timer.o(.ARM.exidx.text.DL_Timer_setSecondCompActionDn), (8 bytes).
    Removing dl_timer.o(.text.DL_Timer_getSecondCompActionDn), (20 bytes).
    Removing dl_timer.o(.ARM.exidx.text.DL_Timer_getSecondCompActionDn), (8 bytes).
    Removing dl_timer.o(.text.DL_Timer_setSecondCompActionUp), (28 bytes).
    Removing dl_timer.o(.ARM.exidx.text.DL_Timer_setSecondCompActionUp), (8 bytes).
    Removing dl_timer.o(.text.DL_Timer_getSecondCompActionUp), (20 bytes).
    Removing dl_timer.o(.ARM.exidx.text.DL_Timer_getSecondCompActionUp), (8 bytes).
    Removing dl_timer.o(.text.DL_Timer_enableSuppressionOfCompEvent), (24 bytes).
    Removing dl_timer.o(.ARM.exidx.text.DL_Timer_enableSuppressionOfCompEvent), (8 bytes).
    Removing dl_timer.o(.text.DL_Timer_disableSuppressionOfCompEvent), (24 bytes).
    Removing dl_timer.o(.ARM.exidx.text.DL_Timer_disableSuppressionOfCompEvent), (8 bytes).
    Removing dl_timer.o(.ARM.exidx.text.DL_Timer_setCaptCompUpdateMethod), (8 bytes).
    Removing dl_timer.o(.text.DL_Timer_getCaptCompUpdateMethod), (20 bytes).
    Removing dl_timer.o(.ARM.exidx.text.DL_Timer_getCaptCompUpdateMethod), (8 bytes).
    Removing dl_timer.o(.ARM.exidx.text.DL_Timer_setCaptureCompareOutCtl), (8 bytes).
    Removing dl_timer.o(.text.DL_Timer_getCaptureCompareOutCtl), (16 bytes).
    Removing dl_timer.o(.ARM.exidx.text.DL_Timer_getCaptureCompareOutCtl), (8 bytes).
    Removing dl_timer.o(.text.DL_Timer_setCaptureCompareAction), (36 bytes).
    Removing dl_timer.o(.ARM.exidx.text.DL_Timer_setCaptureCompareAction), (8 bytes).
    Removing dl_timer.o(.text.DL_Timer_getCaptureCompareAction), (24 bytes).
    Removing dl_timer.o(.ARM.exidx.text.DL_Timer_getCaptureCompareAction), (8 bytes).
    Removing dl_timer.o(.text.DL_Timer_overrideCCPOut), (32 bytes).
    Removing dl_timer.o(.ARM.exidx.text.DL_Timer_overrideCCPOut), (8 bytes).
    Removing dl_timer.o(.text.DL_Timer_getCaptureCompareInput), (16 bytes).
    Removing dl_timer.o(.ARM.exidx.text.DL_Timer_getCaptureCompareInput), (8 bytes).
    Removing dl_timer.o(.text.DL_Timer_setCaptureCompareInputFilter), (28 bytes).
    Removing dl_timer.o(.ARM.exidx.text.DL_Timer_setCaptureCompareInputFilter), (8 bytes).
    Removing dl_timer.o(.text.DL_Timer_getCaptureCompareInputFilter), (18 bytes).
    Removing dl_timer.o(.ARM.exidx.text.DL_Timer_getCaptureCompareInputFilter), (8 bytes).
    Removing dl_timer.o(.text.DL_Timer_enableCaptureCompareInputFilter), (20 bytes).
    Removing dl_timer.o(.ARM.exidx.text.DL_Timer_enableCaptureCompareInputFilter), (8 bytes).
    Removing dl_timer.o(.text.DL_Timer_disableCaptureCompareInputFilter), (20 bytes).
    Removing dl_timer.o(.ARM.exidx.text.DL_Timer_disableCaptureCompareInputFilter), (8 bytes).
    Removing dl_timer.o(.text.DL_Timer_isCaptureCompareInputFilterEnabled), (20 bytes).
    Removing dl_timer.o(.ARM.exidx.text.DL_Timer_isCaptureCompareInputFilterEnabled), (8 bytes).
    Removing dl_timer.o(.text.DL_Timer_saveConfiguration), (236 bytes).
    Removing dl_timer.o(.ARM.exidx.text.DL_Timer_saveConfiguration), (8 bytes).
    Removing dl_timer.o(.text.DL_Timer_restoreConfiguration), (244 bytes).
    Removing dl_timer.o(.ARM.exidx.text.DL_Timer_restoreConfiguration), (8 bytes).
    Removing dl_timer.o(.ARM.exidx.text.DL_Timer_initFourCCPWMMode), (8 bytes).
    Removing dl_timer.o(.text.DL_Timer_setFaultSourceConfig), (44 bytes).
    Removing dl_timer.o(.ARM.exidx.text.DL_Timer_setFaultSourceConfig), (8 bytes).
    Removing dl_timer.o(.text.DL_Timer_getFaultSourceConfig), (32 bytes).
    Removing dl_timer.o(.ARM.exidx.text.DL_Timer_getFaultSourceConfig), (8 bytes).
    Removing dl_timer.o(.text.DL_TimerA_saveConfiguration), (264 bytes).
    Removing dl_timer.o(.ARM.exidx.text.DL_TimerA_saveConfiguration), (8 bytes).
    Removing dl_timer.o(.text.DL_TimerA_restoreConfiguration), (276 bytes).
    Removing dl_timer.o(.ARM.exidx.text.DL_TimerA_restoreConfiguration), (8 bytes).
    Removing dl_timer.o(.text.DL_Timer_configQEIHallInputMode), (36 bytes).
    Removing dl_timer.o(.ARM.exidx.text.DL_Timer_configQEIHallInputMode), (8 bytes).
    Removing dl_timer.o(.rodata..Lswitch.table.DL_Timer_initCompareMode), (12 bytes).
    Removing dl_uart.o(.text), (0 bytes).
    Removing dl_uart.o(.ARM.exidx.text.DL_UART_init), (8 bytes).
    Removing dl_uart.o(.ARM.exidx.text.DL_UART_setClockConfig), (8 bytes).
    Removing dl_uart.o(.text.DL_UART_getClockConfig), (16 bytes).
    Removing dl_uart.o(.ARM.exidx.text.DL_UART_getClockConfig), (8 bytes).
    Removing dl_uart.o(.text.DL_UART_configBaudRate), (140 bytes).
    Removing dl_uart.o(.ARM.exidx.text.DL_UART_configBaudRate), (8 bytes).
    Removing dl_uart.o(.text.DL_UART_configIrDAMode), (60 bytes).
    Removing dl_uart.o(.ARM.exidx.text.DL_UART_configIrDAMode), (8 bytes).
    Removing dl_uart.o(.text.DL_UART_setIrDAPulseLength), (42 bytes).
    Removing dl_uart.o(.ARM.exidx.text.DL_UART_setIrDAPulseLength), (8 bytes).
    Removing dl_uart.o(.text.DL_UART_receiveDataBlocking), (20 bytes).
    Removing dl_uart.o(.ARM.exidx.text.DL_UART_receiveDataBlocking), (8 bytes).
    Removing dl_uart.o(.text.DL_UART_transmitDataBlocking), (20 bytes).
    Removing dl_uart.o(.ARM.exidx.text.DL_UART_transmitDataBlocking), (8 bytes).
    Removing dl_uart.o(.text.DL_UART_receiveDataCheck), (28 bytes).
    Removing dl_uart.o(.ARM.exidx.text.DL_UART_receiveDataCheck), (8 bytes).
    Removing dl_uart.o(.text.DL_UART_transmitDataCheck), (24 bytes).
    Removing dl_uart.o(.ARM.exidx.text.DL_UART_transmitDataCheck), (8 bytes).
    Removing dl_uart.o(.text.DL_UART_drainRXFIFO), (40 bytes).
    Removing dl_uart.o(.ARM.exidx.text.DL_UART_drainRXFIFO), (8 bytes).
    Removing dl_uart.o(.text.DL_UART_fillTXFIFO), (40 bytes).
    Removing dl_uart.o(.ARM.exidx.text.DL_UART_fillTXFIFO), (8 bytes).
    Removing dl_uart.o(.text.DL_UART_Main_saveConfiguration), (88 bytes).
    Removing dl_uart.o(.ARM.exidx.text.DL_UART_Main_saveConfiguration), (8 bytes).
    Removing dl_uart.o(.text.DL_UART_Main_restoreConfiguration), (120 bytes).
    Removing dl_uart.o(.ARM.exidx.text.DL_UART_Main_restoreConfiguration), (8 bytes).
    Removing dl_uart.o(.text.DL_UART_Extend_saveConfiguration), (104 bytes).
    Removing dl_uart.o(.ARM.exidx.text.DL_UART_Extend_saveConfiguration), (8 bytes).
    Removing dl_uart.o(.text.DL_UART_Extend_restoreConfiguration), (132 bytes).
    Removing dl_uart.o(.ARM.exidx.text.DL_UART_Extend_restoreConfiguration), (8 bytes).
    Removing dl_sysctl_mspm0g1x0x_g3x0x.o(.text), (0 bytes).
    Removing dl_sysctl_mspm0g1x0x_g3x0x.o(.ARM.exidx.text.DL_SYSCTL_configSYSPLL), (8 bytes).
    Removing dl_sysctl_mspm0g1x0x_g3x0x.o(.text.DL_SYSCTL_setLFCLKSourceLFXT), (80 bytes).
    Removing dl_sysctl_mspm0g1x0x_g3x0x.o(.ARM.exidx.text.DL_SYSCTL_setLFCLKSourceLFXT), (8 bytes).
    Removing dl_sysctl_mspm0g1x0x_g3x0x.o(.text.DL_SYSCTL_switchMCLKfromSYSOSCtoLFCLK), (60 bytes).
    Removing dl_sysctl_mspm0g1x0x_g3x0x.o(.ARM.exidx.text.DL_SYSCTL_switchMCLKfromSYSOSCtoLFCLK), (8 bytes).
    Removing dl_sysctl_mspm0g1x0x_g3x0x.o(.text.DL_SYSCTL_switchMCLKfromLFCLKtoSYSOSC), (40 bytes).
    Removing dl_sysctl_mspm0g1x0x_g3x0x.o(.ARM.exidx.text.DL_SYSCTL_switchMCLKfromLFCLKtoSYSOSC), (8 bytes).
    Removing dl_sysctl_mspm0g1x0x_g3x0x.o(.ARM.exidx.text.DL_SYSCTL_switchMCLKfromSYSOSCtoHSCLK), (8 bytes).
    Removing dl_sysctl_mspm0g1x0x_g3x0x.o(.text.DL_SYSCTL_switchMCLKfromHSCLKtoSYSOSC), (32 bytes).
    Removing dl_sysctl_mspm0g1x0x_g3x0x.o(.ARM.exidx.text.DL_SYSCTL_switchMCLKfromHSCLKtoSYSOSC), (8 bytes).
    Removing dl_sysctl_mspm0g1x0x_g3x0x.o(.text.DL_SYSCTL_setHFCLKSourceHFXT), (76 bytes).
    Removing dl_sysctl_mspm0g1x0x_g3x0x.o(.ARM.exidx.text.DL_SYSCTL_setHFCLKSourceHFXT), (8 bytes).
    Removing dl_sysctl_mspm0g1x0x_g3x0x.o(.ARM.exidx.text.DL_SYSCTL_setHFCLKSourceHFXTParams), (8 bytes).
    Removing dl_sysctl_mspm0g1x0x_g3x0x.o(.text.DL_SYSCTL_configFCC), (28 bytes).
    Removing dl_sysctl_mspm0g1x0x_g3x0x.o(.ARM.exidx.text.DL_SYSCTL_configFCC), (8 bytes).
    Removing dl_sysctl_mspm0g1x0x_g3x0x.o(.text.DL_SYSCTL_getPowerPolicyRUNSLEEP), (48 bytes).
    Removing dl_sysctl_mspm0g1x0x_g3x0x.o(.ARM.exidx.text.DL_SYSCTL_getPowerPolicyRUNSLEEP), (8 bytes).
    Removing dl_sysctl_mspm0g1x0x_g3x0x.o(.text.DL_SYSCTL_getPowerPolicySTOP), (52 bytes).
    Removing dl_sysctl_mspm0g1x0x_g3x0x.o(.ARM.exidx.text.DL_SYSCTL_getPowerPolicySTOP), (8 bytes).
    Removing dl_sysctl_mspm0g1x0x_g3x0x.o(.text.DL_SYSCTL_getPowerPolicySTANDBY), (40 bytes).
    Removing dl_sysctl_mspm0g1x0x_g3x0x.o(.ARM.exidx.text.DL_SYSCTL_getPowerPolicySTANDBY), (8 bytes).

615 unused section(s) (total 30596 bytes) removed from the image.

==============================================================================

Image Symbol Table

    Local Symbols

    Symbol Name                              Value     Ov Type        Size  Object(Section)

    ../clib/angel/boardlib.s                 0x00000000   Number         0  boardinit1.o ABSOLUTE
    ../clib/angel/boardlib.s                 0x00000000   Number         0  boardinit2.o ABSOLUTE
    ../clib/angel/boardlib.s                 0x00000000   Number         0  boardinit3.o ABSOLUTE
    ../clib/angel/boardlib.s                 0x00000000   Number         0  boardshut.o ABSOLUTE
    ../clib/angel/handlers.s                 0x00000000   Number         0  __scatter_copy.o ABSOLUTE
    ../clib/angel/handlers.s                 0x00000000   Number         0  __scatter_zi.o ABSOLUTE
    ../clib/angel/kernel.s                   0x00000000   Number         0  __rtentry.o ABSOLUTE
    ../clib/angel/kernel.s                   0x00000000   Number         0  __rtentry2.o ABSOLUTE
    ../clib/angel/kernel.s                   0x00000000   Number         0  __rtentry4.o ABSOLUTE
    ../clib/angel/kernel.s                   0x00000000   Number         0  rtexit.o ABSOLUTE
    ../clib/angel/kernel.s                   0x00000000   Number         0  rtexit2.o ABSOLUTE
    ../clib/angel/rt.s                       0x00000000   Number         0  aeabi_idiv0.o ABSOLUTE
    ../clib/angel/rt.s                       0x00000000   Number         0  aeabi_idiv0_sigfpe.o ABSOLUTE
    ../clib/angel/rt.s                       0x00000000   Number         0  rt_div0.o ABSOLUTE
    ../clib/angel/rt.s                       0x00000000   Number         0  rt_raise.o ABSOLUTE
    ../clib/angel/scatterp.s                 0x00000000   Number         0  __scatter.o ABSOLUTE
    ../clib/angel/startup.s                  0x00000000   Number         0  __main.o ABSOLUTE
    ../clib/angel/sys.s                      0x00000000   Number         0  sys_stackheap_outer.o ABSOLUTE
    ../clib/angel/sys.s                      0x00000000   Number         0  libspace.o ABSOLUTE
    ../clib/angel/sys.s                      0x00000000   Number         0  tempstk.o ABSOLUTE
    ../clib/angel/sys.s                      0x00000000   Number         0  use_no_semi.o ABSOLUTE
    ../clib/angel/sys.s                      0x00000000   Number         0  indicate_semi.o ABSOLUTE
    ../clib/angel/sysapp.c                   0x00000000   Number         0  sys_wrch.o ABSOLUTE
    ../clib/angel/sysapp.c                   0x00000000   Number         0  sys_wrch_hlt.o ABSOLUTE
    ../clib/angel/sysapp.c                   0x00000000   Number         0  sys_command.o ABSOLUTE
    ../clib/angel/sysapp.c                   0x00000000   Number         0  sys_command_hlt.o ABSOLUTE
    ../clib/armsys.c                         0x00000000   Number         0  argv_veneer.o ABSOLUTE
    ../clib/armsys.c                         0x00000000   Number         0  _get_argv_nomalloc.o ABSOLUTE
    ../clib/armsys.c                         0x00000000   Number         0  no_argv.o ABSOLUTE
    ../clib/division.c                       0x00000000   Number         0  rtudiv10.o ABSOLUTE
    ../clib/division.s                       0x00000000   Number         0  aeabi_sdivfast.o ABSOLUTE
    ../clib/division.s                       0x00000000   Number         0  aeabi_sdivfast_div0.o ABSOLUTE
    ../clib/heapalloc.c                      0x00000000   Number         0  hrguard.o ABSOLUTE
    ../clib/heapaux.c                        0x00000000   Number         0  heapauxi.o ABSOLUTE
    ../clib/libinit.s                        0x00000000   Number         0  libinit.o ABSOLUTE
    ../clib/libinit.s                        0x00000000   Number         0  libinit2.o ABSOLUTE
    ../clib/libinit.s                        0x00000000   Number         0  libshutdown.o ABSOLUTE
    ../clib/libinit.s                        0x00000000   Number         0  libshutdown2.o ABSOLUTE
    ../clib/memcpset.c                       0x00000000   Number         0  rt_memcpy.o ABSOLUTE
    ../clib/memcpset.c                       0x00000000   Number         0  rt_memcpy.o ABSOLUTE
    ../clib/memcpset.c                       0x00000000   Number         0  rt_memclr.o ABSOLUTE
    ../clib/printf.c                         0x00000000   Number         0  __2printf.o ABSOLUTE
    ../clib/printf.c                         0x00000000   Number         0  noretval__2printf.o ABSOLUTE
    ../clib/printf.c                         0x00000000   Number         0  __printf.o ABSOLUTE
    ../clib/printf.c                         0x00000000   Number         0  _printf_dec.o ABSOLUTE
    ../clib/printf.c                         0x00000000   Number         0  _printf_hex_ll.o ABSOLUTE
    ../clib/printf.c                         0x00000000   Number         0  _printf_hex_int.o ABSOLUTE
    ../clib/printf.c                         0x00000000   Number         0  _printf_hex_int_ll.o ABSOLUTE
    ../clib/printf.c                         0x00000000   Number         0  _printf_hex_ptr.o ABSOLUTE
    ../clib/printf.c                         0x00000000   Number         0  _printf_hex_int_ptr.o ABSOLUTE
    ../clib/printf.c                         0x00000000   Number         0  _printf_hex_ll_ptr.o ABSOLUTE
    ../clib/printf.c                         0x00000000   Number         0  _printf_hex_int_ll_ptr.o ABSOLUTE
    ../clib/printf.c                         0x00000000   Number         0  __printf_flags.o ABSOLUTE
    ../clib/printf.c                         0x00000000   Number         0  __printf_ss.o ABSOLUTE
    ../clib/printf.c                         0x00000000   Number         0  __printf_flags_ss.o ABSOLUTE
    ../clib/printf.c                         0x00000000   Number         0  __printf_wp.o ABSOLUTE
    ../clib/printf.c                         0x00000000   Number         0  __printf_flags_wp.o ABSOLUTE
    ../clib/printf.c                         0x00000000   Number         0  __printf_ss_wp.o ABSOLUTE
    ../clib/printf.c                         0x00000000   Number         0  __printf_flags_ss_wp.o ABSOLUTE
    ../clib/printf.c                         0x00000000   Number         0  _printf_intcommon.o ABSOLUTE
    ../clib/printf.c                         0x00000000   Number         0  _printf_char_file.o ABSOLUTE
    ../clib/printf.c                         0x00000000   Number         0  _printf_char_common.o ABSOLUTE
    ../clib/printf.c                         0x00000000   Number         0  __printf_nopercent.o ABSOLUTE
    ../clib/printf_percent.s                 0x00000000   Number         0  _printf_x.o ABSOLUTE
    ../clib/printf_percent.s                 0x00000000   Number         0  _printf_d.o ABSOLUTE
    ../clib/printf_percent.s                 0x00000000   Number         0  _printf_percent.o ABSOLUTE
    ../clib/printf_percent.s                 0x00000000   Number         0  _printf_percent_end.o ABSOLUTE
    ../clib/signal.c                         0x00000000   Number         0  defsig_fpe_outer.o ABSOLUTE
    ../clib/signal.c                         0x00000000   Number         0  defsig_fpe_formal.o ABSOLUTE
    ../clib/signal.c                         0x00000000   Number         0  defsig_exit.o ABSOLUTE
    ../clib/signal.c                         0x00000000   Number         0  defsig_fpe_inner.o ABSOLUTE
    ../clib/signal.c                         0x00000000   Number         0  __raise.o ABSOLUTE
    ../clib/signal.c                         0x00000000   Number         0  defsig_general.o ABSOLUTE
    ../clib/signal.c                         0x00000000   Number         0  defsig_abrt_inner.o ABSOLUTE
    ../clib/signal.c                         0x00000000   Number         0  defsig_rtred_inner.o ABSOLUTE
    ../clib/signal.c                         0x00000000   Number         0  defsig_rtmem_inner.o ABSOLUTE
    ../clib/signal.c                         0x00000000   Number         0  defsig_rtmem_outer.o ABSOLUTE
    ../clib/signal.c                         0x00000000   Number         0  defsig_rtmem_formal.o ABSOLUTE
    ../clib/signal.c                         0x00000000   Number         0  defsig_stak_inner.o ABSOLUTE
    ../clib/signal.c                         0x00000000   Number         0  defsig_pvfn_inner.o ABSOLUTE
    ../clib/signal.c                         0x00000000   Number         0  defsig_cppl_inner.o ABSOLUTE
    ../clib/signal.c                         0x00000000   Number         0  defsig_segv_inner.o ABSOLUTE
    ../clib/signal.c                         0x00000000   Number         0  defsig_other.o ABSOLUTE
    ../clib/signal.s                         0x00000000   Number         0  defsig.o ABSOLUTE
    ../clib/stdio.c                          0x00000000   Number         0  puts.o ABSOLUTE
    ../clib/stdio.c                          0x00000000   Number         0  ferror.o ABSOLUTE
    ../clib/stdio.c                          0x00000000   Number         0  ferror_locked.o ABSOLUTE
    ../clib/stdlib.c                         0x00000000   Number         0  exit.o ABSOLUTE
    ../clib/string.c                         0x00000000   Number         0  strcpy.o ABSOLUTE
    ../fplib/cfplib/cmp.c                    0x00000000   Number         0  fcmp.o ABSOLUTE
    ../fplib/cfplib/cmpret.c                 0x00000000   Number         0  cmpret.o ABSOLUTE
    ../fplib/cfplib/d2f.c                    0x00000000   Number         0  d2f.o ABSOLUTE
    ../fplib/cfplib/daddsub.c                0x00000000   Number         0  daddsub.o ABSOLUTE
    ../fplib/cfplib/dmul.c                   0x00000000   Number         0  dmul.o ABSOLUTE
    ../fplib/cfplib/f2d.c                    0x00000000   Number         0  f2d.o ABSOLUTE
    ../fplib/cfplib/fcmpin.c                 0x00000000   Number         0  fcmpin.o ABSOLUTE
    ../fplib/cfplib/fdiv.c                   0x00000000   Number         0  fdiv.o ABSOLUTE
    ../fplib/cfplib/ffix.c                   0x00000000   Number         0  ffixi.o ABSOLUTE
    ../fplib/cfplib/ffix.c                   0x00000000   Number         0  ffixui.o ABSOLUTE
    ../fplib/cfplib/fflt.c                   0x00000000   Number         0  dflti.o ABSOLUTE
    ../fplib/cfplib/fflt.c                   0x00000000   Number         0  fflti.o ABSOLUTE
    ../fplib/cfplib/fpinit.c                 0x00000000   Number         0  fpinit.o ABSOLUTE
    ../fplib/cfplib/nan2.c                   0x00000000   Number         0  fnan2.o ABSOLUTE
    ../fplib/cfplib/retnan.c                 0x00000000   Number         0  retnan.o ABSOLUTE
    ../fplib/faddsub6m.s                     0x00000000   Number         0  faddsub.o ABSOLUTE
    ../fplib/feqf6m.s                        0x00000000   Number         0  feqf.o ABSOLUTE
    ../fplib/fgeqf6m.s                       0x00000000   Number         0  fgef.o ABSOLUTE
    ../fplib/fleqf6m.s                       0x00000000   Number         0  flef.o ABSOLUTE
    ../fplib/fmul6m.s                        0x00000000   Number         0  fmul.o ABSOLUTE
    ../fplib/usenofp.s                       0x00000000   Number         0  usenofp.o ABSOLUTE
    app_bluetooth.c                          0x00000000   Number         0  app_bluetooth.o ABSOLUTE
    app_ir_track.c                           0x00000000   Number         0  app_ir_track.o ABSOLUTE
    app_irremote.c                           0x00000000   Number         0  app_irremote.o ABSOLUTE
    app_motor.c                              0x00000000   Number         0  app_motor.o ABSOLUTE
    app_rgb.c                                0x00000000   Number         0  app_rgb.o ABSOLUTE
    bsp.c                                    0x00000000   Number         0  bsp.o ABSOLUTE
    bsp_PID_motor.c                          0x00000000   Number         0  bsp_pid_motor.o ABSOLUTE
    bsp_RGB.c                                0x00000000   Number         0  bsp_rgb.o ABSOLUTE
    bsp_beep_led.c                           0x00000000   Number         0  bsp_beep_led.o ABSOLUTE
    bsp_bluetooth.c                          0x00000000   Number         0  bsp_bluetooth.o ABSOLUTE
    bsp_encoder.c                            0x00000000   Number         0  bsp_encoder.o ABSOLUTE
    bsp_flash_W25Q64.c                       0x00000000   Number         0  bsp_flash_w25q64.o ABSOLUTE
    bsp_infrared_light.c                     0x00000000   Number         0  bsp_infrared_light.o ABSOLUTE
    bsp_ir_receiver.c                        0x00000000   Number         0  bsp_ir_receiver.o ABSOLUTE
    bsp_key.c                                0x00000000   Number         0  bsp_key.o ABSOLUTE
    bsp_motor.c                              0x00000000   Number         0  bsp_motor.o ABSOLUTE
    bsp_servo.c                              0x00000000   Number         0  bsp_servo.o ABSOLUTE
    bsp_timer.c                              0x00000000   Number         0  bsp_timer.o ABSOLUTE
    bsp_ultrasonic.c                         0x00000000   Number         0  bsp_ultrasonic.o ABSOLUTE
    bsp_usart2.c                             0x00000000   Number         0  bsp_usart2.o ABSOLUTE
    bsp_usart3.c                             0x00000000   Number         0  bsp_usart3.o ABSOLUTE
    bsp_usart_voice.c                        0x00000000   Number         0  bsp_usart_voice.o ABSOLUTE
    bsp_vol_adc.c                            0x00000000   Number         0  bsp_vol_adc.o ABSOLUTE
    dc.s                                     0x00000000   Number         0  dc.o ABSOLUTE
    delay.c                                  0x00000000   Number         0  delay.o ABSOLUTE
    dl_adc12.c                               0x00000000   Number         0  dl_adc12.o ABSOLUTE
    dl_common.c                              0x00000000   Number         0  dl_common.o ABSOLUTE
    dl_spi.c                                 0x00000000   Number         0  dl_spi.o ABSOLUTE
    dl_sysctl_mspm0g1x0x_g3x0x.c             0x00000000   Number         0  dl_sysctl_mspm0g1x0x_g3x0x.o ABSOLUTE
    dl_timer.c                               0x00000000   Number         0  dl_timer.o ABSOLUTE
    dl_uart.c                                0x00000000   Number         0  dl_uart.o ABSOLUTE
    k210_use.c                               0x00000000   Number         0  k210_use.o ABSOLUTE
    main.c                                   0x00000000   Number         0  main.o ABSOLUTE
    oled.c                                   0x00000000   Number         0  oled.o ABSOLUTE
    startup_mspm0g350x_uvision.s             0x00000000   Number         0  startup_mspm0g350x_uvision.o ABSOLUTE
    ti_msp_dl_config.c                       0x00000000   Number         0  ti_msp_dl_config.o ABSOLUTE
    usart0.c                                 0x00000000   Number         0  usart0.o ABSOLUTE
    RESET                                    0x00000000   Section      192  startup_mspm0g350x_uvision.o(RESET)
    !!!main                                  0x000000c0   Section        8  __main.o(!!!main)
    !!!scatter                               0x000000c8   Section       60  __scatter.o(!!!scatter)
    !!handler_copy                           0x00000108   Section       26  __scatter_copy.o(!!handler_copy)
    !!handler_zi                             0x00000128   Section       28  __scatter_zi.o(!!handler_zi)
    .ARM.Collect$$_printf_percent$$00000000  0x00000144   Section        2  _printf_percent.o(.ARM.Collect$$_printf_percent$$00000000)
    .ARM.Collect$$_printf_percent$$00000009  0x00000146   Section       10  _printf_d.o(.ARM.Collect$$_printf_percent$$00000009)
    .ARM.Collect$$_printf_percent$$0000000C  0x00000150   Section       10  _printf_x.o(.ARM.Collect$$_printf_percent$$0000000C)
    .ARM.Collect$$_printf_percent$$00000017  0x0000015a   Section        4  _printf_percent_end.o(.ARM.Collect$$_printf_percent$$00000017)
    .ARM.Collect$$libinit$$00000000          0x0000015e   Section        2  libinit.o(.ARM.Collect$$libinit$$00000000)
    .ARM.Collect$$libinit$$00000002          0x00000160   Section        0  libinit2.o(.ARM.Collect$$libinit$$00000002)
    .ARM.Collect$$libinit$$00000004          0x00000160   Section        0  libinit2.o(.ARM.Collect$$libinit$$00000004)
    .ARM.Collect$$libinit$$0000000A          0x00000160   Section        0  libinit2.o(.ARM.Collect$$libinit$$0000000A)
    .ARM.Collect$$libinit$$0000000C          0x00000160   Section        0  libinit2.o(.ARM.Collect$$libinit$$0000000C)
    .ARM.Collect$$libinit$$0000000E          0x00000160   Section        0  libinit2.o(.ARM.Collect$$libinit$$0000000E)
    .ARM.Collect$$libinit$$00000011          0x00000160   Section        0  libinit2.o(.ARM.Collect$$libinit$$00000011)
    .ARM.Collect$$libinit$$00000013          0x00000160   Section        0  libinit2.o(.ARM.Collect$$libinit$$00000013)
    .ARM.Collect$$libinit$$00000015          0x00000160   Section        0  libinit2.o(.ARM.Collect$$libinit$$00000015)
    .ARM.Collect$$libinit$$00000017          0x00000160   Section        0  libinit2.o(.ARM.Collect$$libinit$$00000017)
    .ARM.Collect$$libinit$$00000019          0x00000160   Section        0  libinit2.o(.ARM.Collect$$libinit$$00000019)
    .ARM.Collect$$libinit$$0000001B          0x00000160   Section        0  libinit2.o(.ARM.Collect$$libinit$$0000001B)
    .ARM.Collect$$libinit$$0000001D          0x00000160   Section        0  libinit2.o(.ARM.Collect$$libinit$$0000001D)
    .ARM.Collect$$libinit$$0000001F          0x00000160   Section        0  libinit2.o(.ARM.Collect$$libinit$$0000001F)
    .ARM.Collect$$libinit$$00000021          0x00000160   Section        0  libinit2.o(.ARM.Collect$$libinit$$00000021)
    .ARM.Collect$$libinit$$00000023          0x00000160   Section        0  libinit2.o(.ARM.Collect$$libinit$$00000023)
    .ARM.Collect$$libinit$$00000025          0x00000160   Section        0  libinit2.o(.ARM.Collect$$libinit$$00000025)
    .ARM.Collect$$libinit$$0000002C          0x00000160   Section        0  libinit2.o(.ARM.Collect$$libinit$$0000002C)
    .ARM.Collect$$libinit$$0000002E          0x00000160   Section        0  libinit2.o(.ARM.Collect$$libinit$$0000002E)
    .ARM.Collect$$libinit$$00000030          0x00000160   Section        0  libinit2.o(.ARM.Collect$$libinit$$00000030)
    .ARM.Collect$$libinit$$00000032          0x00000160   Section        0  libinit2.o(.ARM.Collect$$libinit$$00000032)
    .ARM.Collect$$libinit$$00000033          0x00000160   Section        2  libinit2.o(.ARM.Collect$$libinit$$00000033)
    .ARM.Collect$$libshutdown$$00000000      0x00000162   Section        2  libshutdown.o(.ARM.Collect$$libshutdown$$00000000)
    .ARM.Collect$$libshutdown$$00000002      0x00000164   Section        0  libshutdown2.o(.ARM.Collect$$libshutdown$$00000002)
    .ARM.Collect$$libshutdown$$00000004      0x00000164   Section        0  libshutdown2.o(.ARM.Collect$$libshutdown$$00000004)
    .ARM.Collect$$libshutdown$$00000007      0x00000164   Section        0  libshutdown2.o(.ARM.Collect$$libshutdown$$00000007)
    .ARM.Collect$$libshutdown$$0000000A      0x00000164   Section        0  libshutdown2.o(.ARM.Collect$$libshutdown$$0000000A)
    .ARM.Collect$$libshutdown$$0000000C      0x00000164   Section        0  libshutdown2.o(.ARM.Collect$$libshutdown$$0000000C)
    .ARM.Collect$$libshutdown$$0000000F      0x00000164   Section        0  libshutdown2.o(.ARM.Collect$$libshutdown$$0000000F)
    .ARM.Collect$$libshutdown$$00000010      0x00000164   Section        2  libshutdown2.o(.ARM.Collect$$libshutdown$$00000010)
    .ARM.Collect$$rtentry$$00000000          0x00000166   Section        0  __rtentry.o(.ARM.Collect$$rtentry$$00000000)
    .ARM.Collect$$rtentry$$00000002          0x00000166   Section        0  __rtentry2.o(.ARM.Collect$$rtentry$$00000002)
    .ARM.Collect$$rtentry$$00000004          0x00000166   Section        6  __rtentry4.o(.ARM.Collect$$rtentry$$00000004)
    .ARM.Collect$$rtentry$$00000009          0x0000016c   Section        0  __rtentry2.o(.ARM.Collect$$rtentry$$00000009)
    .ARM.Collect$$rtentry$$0000000A          0x0000016c   Section        4  __rtentry2.o(.ARM.Collect$$rtentry$$0000000A)
    .ARM.Collect$$rtentry$$0000000C          0x00000170   Section        0  __rtentry2.o(.ARM.Collect$$rtentry$$0000000C)
    .ARM.Collect$$rtentry$$0000000D          0x00000170   Section        8  __rtentry2.o(.ARM.Collect$$rtentry$$0000000D)
    .ARM.Collect$$rtexit$$00000000           0x00000178   Section        2  rtexit.o(.ARM.Collect$$rtexit$$00000000)
    .ARM.Collect$$rtexit$$00000002           0x0000017a   Section        0  rtexit2.o(.ARM.Collect$$rtexit$$00000002)
    .ARM.Collect$$rtexit$$00000003           0x0000017a   Section        4  rtexit2.o(.ARM.Collect$$rtexit$$00000003)
    .ARM.Collect$$rtexit$$00000004           0x0000017e   Section        6  rtexit2.o(.ARM.Collect$$rtexit$$00000004)
    .emb_text                                0x00000184   Section       56  rt_memcpy.o(.emb_text)
    .text                                    0x000001bc   Section       44  startup_mspm0g350x_uvision.o(.text)
    .text                                    0x000001e8   Section        0  noretval__2printf.o(.text)
    .text                                    0x00000204   Section        0  __printf.o(.text)
    .text                                    0x00000270   Section        0  _printf_dec.o(.text)
    .text                                    0x000002dc   Section        0  _printf_hex_int.o(.text)
    .text                                    0x00000334   Section        0  puts.o(.text)
    .text                                    0x00000360   Section        0  rt_memclr.o(.text)
    .text                                    0x000003a0   Section      504  aeabi_sdivfast.o(.text)
    .text                                    0x00000598   Section        0  heapauxi.o(.text)
    .text                                    0x000005a0   Section        0  d2f.o(.text)
    _dadd1                                   0x0000061d   Thumb Code   290  daddsub.o(.text)
    .text                                    0x0000061c   Section        0  daddsub.o(.text)
    _dsub1                                   0x0000073f   Thumb Code   470  daddsub.o(.text)
    .text                                    0x00000974   Section        0  dflti.o(.text)
    .text                                    0x000009cc   Section        0  dmul.o(.text)
    .text                                    0x00000c14   Section        0  f2d.o(.text)
    .text                                    0x00000c68   Section        0  fdiv.o(.text)
    .text                                    0x00000dc8   Section        0  ffixi.o(.text)
    .text                                    0x00000e14   Section        0  ffixui.o(.text)
    .text                                    0x00000e44   Section        0  fflti.o(.text)
    .text                                    0x00000ea2   Section        0  _printf_intcommon.o(.text)
    .text                                    0x00000f54   Section        0  _printf_char_file.o(.text)
    .text                                    0x00000f7c   Section        0  rtudiv10.o(.text)
    _printf_input_char                       0x00000fa5   Thumb Code    10  _printf_char_common.o(.text)
    .text                                    0x00000fa4   Section        0  _printf_char_common.o(.text)
    .text                                    0x00000fd4   Section        0  ferror.o(.text)
    .text                                    0x00000fdc   Section        0  fcmpin.o(.text)
    .text                                    0x00001040   Section       62  sys_stackheap_outer.o(.text)
    .text                                    0x0000107e   Section        0  exit.o(.text)
    .text                                    0x0000108e   Section        0  cmpret.o(.text)
    .text                                    0x000010bc   Section        0  fnan2.o(.text)
    .text                                    0x000010cc   Section        8  libspace.o(.text)
    .text                                    0x000010d4   Section        0  retnan.o(.text)
    [Anonymous Symbol]                       0x00001134   Section        0  bsp_infrared_light.o(.text.ADC0_IRQHandler)
    __arm_cp.7_0                             0x00001148   Number         4  bsp_infrared_light.o(.text.ADC0_IRQHandler)
    __arm_cp.7_1                             0x0000114c   Number         4  bsp_infrared_light.o(.text.ADC0_IRQHandler)
    [Anonymous Symbol]                       0x00001150   Section        0  bsp_infrared_light.o(.text.ADC_Init)
    __arm_cp.4_0                             0x00001168   Number         4  bsp_infrared_light.o(.text.ADC_Init)
    __arm_cp.4_1                             0x0000116c   Number         4  bsp_infrared_light.o(.text.ADC_Init)
    __arm_cp.4_2                             0x00001170   Number         4  bsp_infrared_light.o(.text.ADC_Init)
    [Anonymous Symbol]                       0x00001174   Section        0  dl_adc12.o(.text.DL_ADC12_setClockConfig)
    __arm_cp.0_0                             0x000011ac   Number         4  dl_adc12.o(.text.DL_ADC12_setClockConfig)
    __arm_cp.0_1                             0x000011b0   Number         4  dl_adc12.o(.text.DL_ADC12_setClockConfig)
    [Anonymous Symbol]                       0x000011b4   Section        0  dl_common.o(.text.DL_Common_delayCycles)
    [Anonymous Symbol]                       0x000011c0   Section        0  dl_spi.o(.text.DL_SPI_init)
    __arm_cp.0_0                             0x000011fc   Number         4  dl_spi.o(.text.DL_SPI_init)
    __arm_cp.0_1                             0x00001200   Number         4  dl_spi.o(.text.DL_SPI_init)
    [Anonymous Symbol]                       0x00001204   Section        0  dl_spi.o(.text.DL_SPI_setClockConfig)
    [Anonymous Symbol]                       0x00001218   Section        0  dl_sysctl_mspm0g1x0x_g3x0x.o(.text.DL_SYSCTL_configSYSPLL)
    __arm_cp.0_0                             0x000012cc   Number         4  dl_sysctl_mspm0g1x0x_g3x0x.o(.text.DL_SYSCTL_configSYSPLL)
    __arm_cp.0_2                             0x000012d0   Number         4  dl_sysctl_mspm0g1x0x_g3x0x.o(.text.DL_SYSCTL_configSYSPLL)
    __arm_cp.0_3                             0x000012d4   Number         4  dl_sysctl_mspm0g1x0x_g3x0x.o(.text.DL_SYSCTL_configSYSPLL)
    __arm_cp.0_4                             0x000012d8   Number         4  dl_sysctl_mspm0g1x0x_g3x0x.o(.text.DL_SYSCTL_configSYSPLL)
    [Anonymous Symbol]                       0x000012dc   Section        0  dl_sysctl_mspm0g1x0x_g3x0x.o(.text.DL_SYSCTL_setHFCLKSourceHFXTParams)
    __arm_cp.7_0                             0x00001328   Number         4  dl_sysctl_mspm0g1x0x_g3x0x.o(.text.DL_SYSCTL_setHFCLKSourceHFXTParams)
    [Anonymous Symbol]                       0x0000132c   Section        0  dl_sysctl_mspm0g1x0x_g3x0x.o(.text.DL_SYSCTL_switchMCLKfromSYSOSCtoHSCLK)
    __arm_cp.4_0                             0x0000134c   Number         4  dl_sysctl_mspm0g1x0x_g3x0x.o(.text.DL_SYSCTL_switchMCLKfromSYSOSCtoHSCLK)
    __arm_cp.4_1                             0x00001350   Number         4  dl_sysctl_mspm0g1x0x_g3x0x.o(.text.DL_SYSCTL_switchMCLKfromSYSOSCtoHSCLK)
    [Anonymous Symbol]                       0x00001354   Section        0  dl_timer.o(.text.DL_Timer_initFourCCPWMMode)
    __arm_cp.38_1                            0x00001448   Number         4  dl_timer.o(.text.DL_Timer_initFourCCPWMMode)
    __arm_cp.38_2                            0x0000144c   Number         4  dl_timer.o(.text.DL_Timer_initFourCCPWMMode)
    __arm_cp.38_4                            0x00001450   Number         4  dl_timer.o(.text.DL_Timer_initFourCCPWMMode)
    __arm_cp.38_5                            0x00001454   Number         4  dl_timer.o(.text.DL_Timer_initFourCCPWMMode)
    __arm_cp.38_6                            0x00001458   Number         4  dl_timer.o(.text.DL_Timer_initFourCCPWMMode)
    [Anonymous Symbol]                       0x0000145c   Section        0  dl_timer.o(.text.DL_Timer_initTimerMode)
    __arm_cp.2_0                             0x0000153c   Number         4  dl_timer.o(.text.DL_Timer_initTimerMode)
    __arm_cp.2_1                             0x00001540   Number         4  dl_timer.o(.text.DL_Timer_initTimerMode)
    __arm_cp.2_2                             0x00001544   Number         4  dl_timer.o(.text.DL_Timer_initTimerMode)
    __arm_cp.2_3                             0x00001548   Number         4  dl_timer.o(.text.DL_Timer_initTimerMode)
    [Anonymous Symbol]                       0x0000154c   Section        0  dl_timer.o(.text.DL_Timer_setCaptCompUpdateMethod)
    __arm_cp.23_0                            0x00001564   Number         4  dl_timer.o(.text.DL_Timer_setCaptCompUpdateMethod)
    [Anonymous Symbol]                       0x00001568   Section        0  dl_timer.o(.text.DL_Timer_setCaptureCompareOutCtl)
    __arm_cp.25_0                            0x0000157c   Number         4  dl_timer.o(.text.DL_Timer_setCaptureCompareOutCtl)
    [Anonymous Symbol]                       0x00001580   Section        0  dl_timer.o(.text.DL_Timer_setCaptureCompareValue)
    __arm_cp.3_0                             0x0000158c   Number         4  dl_timer.o(.text.DL_Timer_setCaptureCompareValue)
    [Anonymous Symbol]                       0x00001590   Section        0  dl_timer.o(.text.DL_Timer_setClockConfig)
    __arm_cp.0_0                             0x000015a8   Number         4  dl_timer.o(.text.DL_Timer_setClockConfig)
    [Anonymous Symbol]                       0x000015ac   Section        0  dl_uart.o(.text.DL_UART_init)
    __arm_cp.0_0                             0x000015ec   Number         4  dl_uart.o(.text.DL_UART_init)
    __arm_cp.0_1                             0x000015f0   Number         4  dl_uart.o(.text.DL_UART_init)
    [Anonymous Symbol]                       0x000015f4   Section        0  dl_uart.o(.text.DL_UART_setClockConfig)
    [Anonymous Symbol]                       0x00001608   Section        0  app_bluetooth.o(.text.Deal_Bluetooth)
    __arm_cp.0_0                             0x00001658   Number         4  app_bluetooth.o(.text.Deal_Bluetooth)
    __arm_cp.0_1                             0x0000165c   Number         4  app_bluetooth.o(.text.Deal_Bluetooth)
    __arm_cp.0_2                             0x00001660   Number         4  app_bluetooth.o(.text.Deal_Bluetooth)
    __arm_cp.0_3                             0x00001664   Number         4  app_bluetooth.o(.text.Deal_Bluetooth)
    __arm_cp.0_4                             0x00001668   Number         4  app_bluetooth.o(.text.Deal_Bluetooth)
    [Anonymous Symbol]                       0x0000166c   Section        0  app_bluetooth.o(.text.Deal_Motor_Data)
    __arm_cp.4_0                             0x000016f4   Number         4  app_bluetooth.o(.text.Deal_Motor_Data)
    __arm_cp.4_1                             0x000016f8   Number         4  app_bluetooth.o(.text.Deal_Motor_Data)
    __arm_cp.4_2                             0x000016fc   Number         4  app_bluetooth.o(.text.Deal_Motor_Data)
    [Anonymous Symbol]                       0x00001700   Section        0  bsp_encoder.o(.text.Encoder_Get_ALL)
    [Anonymous Symbol]                       0x00001710   Section        0  bsp_encoder.o(.text.GROUP1_IRQHandler)
    __arm_cp.6_0                             0x000017fc   Number         4  bsp_encoder.o(.text.GROUP1_IRQHandler)
    __arm_cp.6_1                             0x00001800   Number         4  bsp_encoder.o(.text.GROUP1_IRQHandler)
    __arm_cp.6_3                             0x00001804   Number         4  bsp_encoder.o(.text.GROUP1_IRQHandler)
    __arm_cp.6_4                             0x00001808   Number         4  bsp_encoder.o(.text.GROUP1_IRQHandler)
    __arm_cp.6_5                             0x0000180c   Number         4  bsp_encoder.o(.text.GROUP1_IRQHandler)
    __arm_cp.6_6                             0x00001810   Number         4  bsp_encoder.o(.text.GROUP1_IRQHandler)
    [Anonymous Symbol]                       0x00001814   Section        0  bsp_motor.o(.text.Init_Motor_PWM)
    __arm_cp.0_0                             0x00001820   Number         4  bsp_motor.o(.text.Init_Motor_PWM)
    [Anonymous Symbol]                       0x00001824   Section        0  app_ir_track.o(.text.LineWalking)
    __arm_cp.1_0                             0x000018cc   Number         4  app_ir_track.o(.text.LineWalking)
    __arm_cp.1_1                             0x000018d0   Number         4  app_ir_track.o(.text.LineWalking)
    __arm_cp.1_2                             0x000018d4   Number         4  app_ir_track.o(.text.LineWalking)
    [Anonymous Symbol]                       0x000018d8   Section        0  app_motor.o(.text.Motion_Ctrl)
    [Anonymous Symbol]                       0x000018e0   Section        0  app_motor.o(.text.Motion_Get_Speed)
    __arm_cp.8_0                             0x0000198c   Number         4  app_motor.o(.text.Motion_Get_Speed)
    __arm_cp.8_1                             0x00001990   Number         4  app_motor.o(.text.Motion_Get_Speed)
    __arm_cp.8_2                             0x00001994   Number         4  app_motor.o(.text.Motion_Get_Speed)
    __arm_cp.8_3                             0x00001998   Number         4  app_motor.o(.text.Motion_Get_Speed)
    __arm_cp.8_4                             0x0000199c   Number         4  app_motor.o(.text.Motion_Get_Speed)
    __arm_cp.8_5                             0x000019a0   Number         4  app_motor.o(.text.Motion_Get_Speed)
    __arm_cp.8_6                             0x000019a4   Number         4  app_motor.o(.text.Motion_Get_Speed)
    [Anonymous Symbol]                       0x000019a8   Section        0  app_motor.o(.text.Motion_Handle)
    __arm_cp.17_0                            0x000019f0   Number         4  app_motor.o(.text.Motion_Handle)
    __arm_cp.17_1                            0x000019f4   Number         4  app_motor.o(.text.Motion_Handle)
    __arm_cp.17_2                            0x000019f8   Number         4  app_motor.o(.text.Motion_Handle)
    __arm_cp.17_3                            0x000019fc   Number         4  app_motor.o(.text.Motion_Handle)
    [Anonymous Symbol]                       0x00001a00   Section        0  bsp_motor.o(.text.Motor_Stop)
    __arm_cp.6_0                             0x00001a3c   Number         4  bsp_motor.o(.text.Motor_Stop)
    __arm_cp.6_1                             0x00001a40   Number         4  bsp_motor.o(.text.Motor_Stop)
    [Anonymous Symbol]                       0x00001a44   Section        0  oled.o(.text.OLED_Init)
    __arm_cp.22_0                            0x00001ef0   Number         4  oled.o(.text.OLED_Init)
    __arm_cp.22_1                            0x00001ef4   Number         4  oled.o(.text.OLED_Init)
    __arm_cp.22_2                            0x00001ef8   Number         4  oled.o(.text.OLED_Init)
    __arm_cp.22_3                            0x00001efc   Number         4  oled.o(.text.OLED_Init)
    __arm_cp.22_4                            0x00001f00   Number         4  oled.o(.text.OLED_Init)
    [Anonymous Symbol]                       0x00001f04   Section        0  oled.o(.text.OLED_Refresh)
    __arm_cp.10_0                            0x00001ffc   Number         4  oled.o(.text.OLED_Refresh)
    [Anonymous Symbol]                       0x00002000   Section        0  oled.o(.text.OLED_WR_Byte)
    [Anonymous Symbol]                       0x0000209c   Section        0  bsp_beep_led.o(.text.OPEN_MCULED)
    __arm_cp.0_0                             0x000020a8   Number         4  bsp_beep_led.o(.text.OPEN_MCULED)
    [Anonymous Symbol]                       0x000020ac   Section        0  bsp_pid_motor.o(.text.PID_Calc_Motor)
    [Anonymous Symbol]                       0x000020cc   Section        0  bsp_pid_motor.o(.text.PID_Clear_Motor)
    [Anonymous Symbol]                       0x00002104   Section        0  bsp_pid_motor.o(.text.PID_Incre_Calc)
    __arm_cp.4_0                             0x00002198   Number         4  bsp_pid_motor.o(.text.PID_Incre_Calc)
    __arm_cp.4_1                             0x0000219c   Number         4  bsp_pid_motor.o(.text.PID_Incre_Calc)
    [Anonymous Symbol]                       0x000021a0   Section        0  bsp_pid_motor.o(.text.PID_Param_Init)
    __arm_cp.0_1                             0x000021e0   Number         4  bsp_pid_motor.o(.text.PID_Param_Init)
    __arm_cp.0_2                             0x000021e4   Number         4  bsp_pid_motor.o(.text.PID_Param_Init)
    __arm_cp.0_3                             0x000021e8   Number         4  bsp_pid_motor.o(.text.PID_Param_Init)
    __arm_cp.0_4                             0x000021ec   Number         4  bsp_pid_motor.o(.text.PID_Param_Init)
    __arm_cp.0_5                             0x000021f0   Number         4  bsp_pid_motor.o(.text.PID_Param_Init)
    __arm_cp.0_6                             0x000021f4   Number         4  bsp_pid_motor.o(.text.PID_Param_Init)
    [Anonymous Symbol]                       0x000021f8   Section        0  bsp_pid_motor.o(.text.PID_Set_Motor_Target)
    __arm_cp.10_0                            0x00002214   Number         4  bsp_pid_motor.o(.text.PID_Set_Motor_Target)
    [Anonymous Symbol]                       0x00002218   Section        0  bsp_motor.o(.text.PWM_Control_Car)
    __arm_cp.3_0                             0x000022d0   Number         4  bsp_motor.o(.text.PWM_Control_Car)
    __arm_cp.3_1                             0x000022d4   Number         4  bsp_motor.o(.text.PWM_Control_Car)
    __arm_cp.3_2                             0x000022d8   Number         4  bsp_motor.o(.text.PWM_Control_Car)
    [Anonymous Symbol]                       0x000022dc   Section        0  bsp_usart_voice.o(.text.Processing_Data)
    __arm_cp.1_0                             0x0000234c   Number         4  bsp_usart_voice.o(.text.Processing_Data)
    __arm_cp.1_1                             0x00002350   Number         4  bsp_usart_voice.o(.text.Processing_Data)
    [Anonymous Symbol]                       0x00002354   Section        0  bsp_usart3.o(.text.RingBuff_Init)
    [Anonymous Symbol]                       0x00002360   Section        0  ti_msp_dl_config.o(.text.SYSCFG_DL_ADC_Senor_init)
    __arm_cp.13_0                            0x000023b8   Number         4  ti_msp_dl_config.o(.text.SYSCFG_DL_ADC_Senor_init)
    __arm_cp.13_1                            0x000023bc   Number         4  ti_msp_dl_config.o(.text.SYSCFG_DL_ADC_Senor_init)
    __arm_cp.13_2                            0x000023c0   Number         4  ti_msp_dl_config.o(.text.SYSCFG_DL_ADC_Senor_init)
    __arm_cp.13_3                            0x000023c4   Number         4  ti_msp_dl_config.o(.text.SYSCFG_DL_ADC_Senor_init)
    __arm_cp.13_4                            0x000023c8   Number         4  ti_msp_dl_config.o(.text.SYSCFG_DL_ADC_Senor_init)
    __arm_cp.13_5                            0x000023cc   Number         4  ti_msp_dl_config.o(.text.SYSCFG_DL_ADC_Senor_init)
    __arm_cp.13_6                            0x000023d0   Number         4  ti_msp_dl_config.o(.text.SYSCFG_DL_ADC_Senor_init)
    [Anonymous Symbol]                       0x000023d4   Section        0  ti_msp_dl_config.o(.text.SYSCFG_DL_GPIO_init)
    __arm_cp.2_0                             0x000024cc   Number         4  ti_msp_dl_config.o(.text.SYSCFG_DL_GPIO_init)
    __arm_cp.2_1                             0x000024d0   Number         4  ti_msp_dl_config.o(.text.SYSCFG_DL_GPIO_init)
    __arm_cp.2_2                             0x000024d4   Number         4  ti_msp_dl_config.o(.text.SYSCFG_DL_GPIO_init)
    __arm_cp.2_3                             0x000024d8   Number         4  ti_msp_dl_config.o(.text.SYSCFG_DL_GPIO_init)
    __arm_cp.2_4                             0x000024dc   Number         4  ti_msp_dl_config.o(.text.SYSCFG_DL_GPIO_init)
    __arm_cp.2_5                             0x000024e0   Number         4  ti_msp_dl_config.o(.text.SYSCFG_DL_GPIO_init)
    __arm_cp.2_6                             0x000024e4   Number         4  ti_msp_dl_config.o(.text.SYSCFG_DL_GPIO_init)
    __arm_cp.2_7                             0x000024e8   Number         4  ti_msp_dl_config.o(.text.SYSCFG_DL_GPIO_init)
    __arm_cp.2_8                             0x000024ec   Number         4  ti_msp_dl_config.o(.text.SYSCFG_DL_GPIO_init)
    __arm_cp.2_9                             0x000024f0   Number         4  ti_msp_dl_config.o(.text.SYSCFG_DL_GPIO_init)
    __arm_cp.2_10                            0x000024f4   Number         4  ti_msp_dl_config.o(.text.SYSCFG_DL_GPIO_init)
    __arm_cp.2_11                            0x000024f8   Number         4  ti_msp_dl_config.o(.text.SYSCFG_DL_GPIO_init)
    __arm_cp.2_12                            0x000024fc   Number         4  ti_msp_dl_config.o(.text.SYSCFG_DL_GPIO_init)
    __arm_cp.2_13                            0x00002500   Number         4  ti_msp_dl_config.o(.text.SYSCFG_DL_GPIO_init)
    __arm_cp.2_14                            0x00002504   Number         4  ti_msp_dl_config.o(.text.SYSCFG_DL_GPIO_init)
    [Anonymous Symbol]                       0x00002508   Section        0  ti_msp_dl_config.o(.text.SYSCFG_DL_PWM_Servo_init)
    __arm_cp.5_0                             0x0000257c   Number         4  ti_msp_dl_config.o(.text.SYSCFG_DL_PWM_Servo_init)
    __arm_cp.5_1                             0x00002580   Number         4  ti_msp_dl_config.o(.text.SYSCFG_DL_PWM_Servo_init)
    __arm_cp.5_2                             0x00002584   Number         4  ti_msp_dl_config.o(.text.SYSCFG_DL_PWM_Servo_init)
    __arm_cp.5_3                             0x00002588   Number         4  ti_msp_dl_config.o(.text.SYSCFG_DL_PWM_Servo_init)
    [Anonymous Symbol]                       0x0000258c   Section        0  ti_msp_dl_config.o(.text.SYSCFG_DL_SPI_W25Q64_init)
    __arm_cp.12_0                            0x000025c4   Number         4  ti_msp_dl_config.o(.text.SYSCFG_DL_SPI_W25Q64_init)
    __arm_cp.12_1                            0x000025c8   Number         4  ti_msp_dl_config.o(.text.SYSCFG_DL_SPI_W25Q64_init)
    __arm_cp.12_2                            0x000025cc   Number         4  ti_msp_dl_config.o(.text.SYSCFG_DL_SPI_W25Q64_init)
    __arm_cp.12_3                            0x000025d0   Number         4  ti_msp_dl_config.o(.text.SYSCFG_DL_SPI_W25Q64_init)
    __arm_cp.12_4                            0x000025d4   Number         4  ti_msp_dl_config.o(.text.SYSCFG_DL_SPI_W25Q64_init)
    [Anonymous Symbol]                       0x000025d8   Section        0  ti_msp_dl_config.o(.text.SYSCFG_DL_SYSCTL_CLK_init)
    __arm_cp.15_0                            0x000025e8   Number         4  ti_msp_dl_config.o(.text.SYSCFG_DL_SYSCTL_CLK_init)
    __arm_cp.15_1                            0x000025ec   Number         4  ti_msp_dl_config.o(.text.SYSCFG_DL_SYSCTL_CLK_init)
    [Anonymous Symbol]                       0x000025f0   Section        0  ti_msp_dl_config.o(.text.SYSCFG_DL_SYSCTL_init)
    __arm_cp.3_0                             0x0000265c   Number         4  ti_msp_dl_config.o(.text.SYSCFG_DL_SYSCTL_init)
    __arm_cp.3_1                             0x00002660   Number         4  ti_msp_dl_config.o(.text.SYSCFG_DL_SYSCTL_init)
    __arm_cp.3_2                             0x00002664   Number         4  ti_msp_dl_config.o(.text.SYSCFG_DL_SYSCTL_init)
    [Anonymous Symbol]                       0x00002668   Section        0  ti_msp_dl_config.o(.text.SYSCFG_DL_SYSTICK_init)
    __arm_cp.14_0                            0x00002680   Number         4  ti_msp_dl_config.o(.text.SYSCFG_DL_SYSTICK_init)
    [Anonymous Symbol]                       0x00002684   Section        0  ti_msp_dl_config.o(.text.SYSCFG_DL_TIMER_1ms_init)
    __arm_cp.7_0                             0x000026bc   Number         4  ti_msp_dl_config.o(.text.SYSCFG_DL_TIMER_1ms_init)
    __arm_cp.7_1                             0x000026c0   Number         4  ti_msp_dl_config.o(.text.SYSCFG_DL_TIMER_1ms_init)
    __arm_cp.7_2                             0x000026c4   Number         4  ti_msp_dl_config.o(.text.SYSCFG_DL_TIMER_1ms_init)
    __arm_cp.7_3                             0x000026c8   Number         4  ti_msp_dl_config.o(.text.SYSCFG_DL_TIMER_1ms_init)
    __arm_cp.7_5                             0x000026cc   Number         4  ti_msp_dl_config.o(.text.SYSCFG_DL_TIMER_1ms_init)
    [Anonymous Symbol]                       0x000026d0   Section        0  ti_msp_dl_config.o(.text.SYSCFG_DL_TIMER_20ms_init)
    __arm_cp.6_0                             0x00002704   Number         4  ti_msp_dl_config.o(.text.SYSCFG_DL_TIMER_20ms_init)
    __arm_cp.6_1                             0x00002708   Number         4  ti_msp_dl_config.o(.text.SYSCFG_DL_TIMER_20ms_init)
    __arm_cp.6_2                             0x0000270c   Number         4  ti_msp_dl_config.o(.text.SYSCFG_DL_TIMER_20ms_init)
    __arm_cp.6_3                             0x00002710   Number         4  ti_msp_dl_config.o(.text.SYSCFG_DL_TIMER_20ms_init)
    __arm_cp.6_4                             0x00002714   Number         4  ti_msp_dl_config.o(.text.SYSCFG_DL_TIMER_20ms_init)
    __arm_cp.6_5                             0x00002718   Number         4  ti_msp_dl_config.o(.text.SYSCFG_DL_TIMER_20ms_init)
    [Anonymous Symbol]                       0x0000271c   Section        0  ti_msp_dl_config.o(.text.SYSCFG_DL_UART_0_init)
    __arm_cp.8_0                             0x00002774   Number         4  ti_msp_dl_config.o(.text.SYSCFG_DL_UART_0_init)
    __arm_cp.8_1                             0x00002778   Number         4  ti_msp_dl_config.o(.text.SYSCFG_DL_UART_0_init)
    __arm_cp.8_2                             0x0000277c   Number         4  ti_msp_dl_config.o(.text.SYSCFG_DL_UART_0_init)
    __arm_cp.8_3                             0x00002780   Number         4  ti_msp_dl_config.o(.text.SYSCFG_DL_UART_0_init)
    __arm_cp.8_5                             0x00002784   Number         4  ti_msp_dl_config.o(.text.SYSCFG_DL_UART_0_init)
    [Anonymous Symbol]                       0x00002788   Section        0  ti_msp_dl_config.o(.text.SYSCFG_DL_UART_1_init)
    __arm_cp.9_0                             0x000027ec   Number         4  ti_msp_dl_config.o(.text.SYSCFG_DL_UART_1_init)
    __arm_cp.9_1                             0x000027f0   Number         4  ti_msp_dl_config.o(.text.SYSCFG_DL_UART_1_init)
    __arm_cp.9_2                             0x000027f4   Number         4  ti_msp_dl_config.o(.text.SYSCFG_DL_UART_1_init)
    __arm_cp.9_3                             0x000027f8   Number         4  ti_msp_dl_config.o(.text.SYSCFG_DL_UART_1_init)
    __arm_cp.9_5                             0x000027fc   Number         4  ti_msp_dl_config.o(.text.SYSCFG_DL_UART_1_init)
    [Anonymous Symbol]                       0x00002800   Section        0  ti_msp_dl_config.o(.text.SYSCFG_DL_UART_2_init)
    __arm_cp.10_0                            0x00002868   Number         4  ti_msp_dl_config.o(.text.SYSCFG_DL_UART_2_init)
    __arm_cp.10_1                            0x0000286c   Number         4  ti_msp_dl_config.o(.text.SYSCFG_DL_UART_2_init)
    __arm_cp.10_2                            0x00002870   Number         4  ti_msp_dl_config.o(.text.SYSCFG_DL_UART_2_init)
    __arm_cp.10_3                            0x00002874   Number         4  ti_msp_dl_config.o(.text.SYSCFG_DL_UART_2_init)
    __arm_cp.10_5                            0x00002878   Number         4  ti_msp_dl_config.o(.text.SYSCFG_DL_UART_2_init)
    __arm_cp.10_6                            0x0000287c   Number         4  ti_msp_dl_config.o(.text.SYSCFG_DL_UART_2_init)
    [Anonymous Symbol]                       0x00002880   Section        0  ti_msp_dl_config.o(.text.SYSCFG_DL_UART_3_init)
    __arm_cp.11_0                            0x000028e8   Number         4  ti_msp_dl_config.o(.text.SYSCFG_DL_UART_3_init)
    __arm_cp.11_1                            0x000028ec   Number         4  ti_msp_dl_config.o(.text.SYSCFG_DL_UART_3_init)
    __arm_cp.11_2                            0x000028f0   Number         4  ti_msp_dl_config.o(.text.SYSCFG_DL_UART_3_init)
    __arm_cp.11_3                            0x000028f4   Number         4  ti_msp_dl_config.o(.text.SYSCFG_DL_UART_3_init)
    __arm_cp.11_4                            0x000028f8   Number         4  ti_msp_dl_config.o(.text.SYSCFG_DL_UART_3_init)
    __arm_cp.11_5                            0x000028fc   Number         4  ti_msp_dl_config.o(.text.SYSCFG_DL_UART_3_init)
    __arm_cp.11_6                            0x00002900   Number         4  ti_msp_dl_config.o(.text.SYSCFG_DL_UART_3_init)
    [Anonymous Symbol]                       0x00002904   Section        0  ti_msp_dl_config.o(.text.SYSCFG_DL_init)
    __arm_cp.0_0                             0x00002964   Number         4  ti_msp_dl_config.o(.text.SYSCFG_DL_init)
    __arm_cp.0_1                             0x00002968   Number         4  ti_msp_dl_config.o(.text.SYSCFG_DL_init)
    __arm_cp.0_2                             0x0000296c   Number         4  ti_msp_dl_config.o(.text.SYSCFG_DL_init)
    __arm_cp.0_3                             0x00002970   Number         4  ti_msp_dl_config.o(.text.SYSCFG_DL_init)
    __arm_cp.0_4                             0x00002974   Number         4  ti_msp_dl_config.o(.text.SYSCFG_DL_init)
    [Anonymous Symbol]                       0x00002978   Section        0  ti_msp_dl_config.o(.text.SYSCFG_DL_initPower)
    __arm_cp.1_0                             0x000029e0   Number         4  ti_msp_dl_config.o(.text.SYSCFG_DL_initPower)
    __arm_cp.1_1                             0x000029e4   Number         4  ti_msp_dl_config.o(.text.SYSCFG_DL_initPower)
    __arm_cp.1_2                             0x000029e8   Number         4  ti_msp_dl_config.o(.text.SYSCFG_DL_initPower)
    __arm_cp.1_3                             0x000029ec   Number         4  ti_msp_dl_config.o(.text.SYSCFG_DL_initPower)
    __arm_cp.1_4                             0x000029f0   Number         4  ti_msp_dl_config.o(.text.SYSCFG_DL_initPower)
    __arm_cp.1_5                             0x000029f4   Number         4  ti_msp_dl_config.o(.text.SYSCFG_DL_initPower)
    __arm_cp.1_6                             0x000029f8   Number         4  ti_msp_dl_config.o(.text.SYSCFG_DL_initPower)
    __arm_cp.1_7                             0x000029fc   Number         4  ti_msp_dl_config.o(.text.SYSCFG_DL_initPower)
    __arm_cp.1_8                             0x00002a00   Number         4  ti_msp_dl_config.o(.text.SYSCFG_DL_initPower)
    __arm_cp.1_9                             0x00002a04   Number         4  ti_msp_dl_config.o(.text.SYSCFG_DL_initPower)
    __arm_cp.1_10                            0x00002a08   Number         4  ti_msp_dl_config.o(.text.SYSCFG_DL_initPower)
    __arm_cp.1_11                            0x00002a0c   Number         4  ti_msp_dl_config.o(.text.SYSCFG_DL_initPower)
    __arm_cp.1_12                            0x00002a10   Number         4  ti_msp_dl_config.o(.text.SYSCFG_DL_initPower)
    __arm_cp.1_13                            0x00002a14   Number         4  ti_msp_dl_config.o(.text.SYSCFG_DL_initPower)
    [Anonymous Symbol]                       0x00002a18   Section        0  ti_msp_dl_config.o(.text.SYSCFG_DL_motor_PWM_init)
    __arm_cp.4_0                             0x00002ad8   Number         4  ti_msp_dl_config.o(.text.SYSCFG_DL_motor_PWM_init)
    __arm_cp.4_1                             0x00002adc   Number         4  ti_msp_dl_config.o(.text.SYSCFG_DL_motor_PWM_init)
    __arm_cp.4_2                             0x00002ae0   Number         4  ti_msp_dl_config.o(.text.SYSCFG_DL_motor_PWM_init)
    __arm_cp.4_3                             0x00002ae4   Number         4  ti_msp_dl_config.o(.text.SYSCFG_DL_motor_PWM_init)
    [Anonymous Symbol]                       0x00002ae8   Section        0  oled.o(.text.Send_Byte)
    __arm_cp.7_0                             0x00002bfc   Number         4  oled.o(.text.Send_Byte)
    [Anonymous Symbol]                       0x00002c00   Section        0  bsp_servo.o(.text.Set_Servo_Angle)
    __arm_cp.2_0                             0x00002c44   Number         4  bsp_servo.o(.text.Set_Servo_Angle)
    __arm_cp.2_1                             0x00002c48   Number         4  bsp_servo.o(.text.Set_Servo_Angle)
    __arm_cp.2_2                             0x00002c4c   Number         4  bsp_servo.o(.text.Set_Servo_Angle)
    __arm_cp.2_3                             0x00002c50   Number         4  bsp_servo.o(.text.Set_Servo_Angle)
    __arm_cp.2_4                             0x00002c54   Number         4  bsp_servo.o(.text.Set_Servo_Angle)
    [Anonymous Symbol]                       0x00002c58   Section        0  bsp_ultrasonic.o(.text.TIMA1_IRQHandler)
    __arm_cp.4_0                             0x00002c6c   Number         4  bsp_ultrasonic.o(.text.TIMA1_IRQHandler)
    __arm_cp.4_1                             0x00002c70   Number         4  bsp_ultrasonic.o(.text.TIMA1_IRQHandler)
    [Anonymous Symbol]                       0x00002c74   Section        0  bsp_timer.o(.text.TIMG0_IRQHandler)
    __arm_cp.1_0                             0x00002ca4   Number         4  bsp_timer.o(.text.TIMG0_IRQHandler)
    __arm_cp.1_1                             0x00002ca8   Number         4  bsp_timer.o(.text.TIMG0_IRQHandler)
    __arm_cp.1_2                             0x00002cac   Number         4  bsp_timer.o(.text.TIMG0_IRQHandler)
    [Anonymous Symbol]                       0x00002cb0   Section        0  bsp_timer.o(.text.Timer_20ms_Init)
    __arm_cp.0_0                             0x00002cc8   Number         4  bsp_timer.o(.text.Timer_20ms_Init)
    [Anonymous Symbol]                       0x00002ccc   Section        0  app_ir_track.o(.text.Track_PID)
    __arm_cp.0_0                             0x00002d44   Number         4  app_ir_track.o(.text.Track_PID)
    __arm_cp.0_1                             0x00002d48   Number         4  app_ir_track.o(.text.Track_PID)
    __arm_cp.0_2                             0x00002d4c   Number         4  app_ir_track.o(.text.Track_PID)
    __arm_cp.0_3                             0x00002d50   Number         4  app_ir_track.o(.text.Track_PID)
    __arm_cp.0_4                             0x00002d54   Number         4  app_ir_track.o(.text.Track_PID)
    [Anonymous Symbol]                       0x00002d58   Section        0  usart0.o(.text.UART0_IRQHandler)
    __arm_cp.4_0                             0x00002d94   Number         4  usart0.o(.text.UART0_IRQHandler)
    __arm_cp.4_1                             0x00002d98   Number         4  usart0.o(.text.UART0_IRQHandler)
    __arm_cp.4_2                             0x00002d9c   Number         4  usart0.o(.text.UART0_IRQHandler)
    __arm_cp.4_3                             0x00002da0   Number         4  usart0.o(.text.UART0_IRQHandler)
    __arm_cp.4_4                             0x00002da4   Number         4  usart0.o(.text.UART0_IRQHandler)
    [Anonymous Symbol]                       0x00002da8   Section        0  bsp_bluetooth.o(.text.UART1_IRQHandler)
    __arm_cp.3_0                             0x00002dc8   Number         4  bsp_bluetooth.o(.text.UART1_IRQHandler)
    __arm_cp.3_1                             0x00002dcc   Number         4  bsp_bluetooth.o(.text.UART1_IRQHandler)
    [Anonymous Symbol]                       0x00002dd0   Section        0  bsp_usart2.o(.text.UART2_IRQHandler)
    __arm_cp.3_0                             0x00002e0c   Number         4  bsp_usart2.o(.text.UART2_IRQHandler)
    __arm_cp.3_1                             0x00002e10   Number         4  bsp_usart2.o(.text.UART2_IRQHandler)
    __arm_cp.3_2                             0x00002e14   Number         4  bsp_usart2.o(.text.UART2_IRQHandler)
    __arm_cp.3_3                             0x00002e18   Number         4  bsp_usart2.o(.text.UART2_IRQHandler)
    __arm_cp.3_4                             0x00002e1c   Number         4  bsp_usart2.o(.text.UART2_IRQHandler)
    __arm_cp.3_5                             0x00002e20   Number         4  bsp_usart2.o(.text.UART2_IRQHandler)
    __arm_cp.3_6                             0x00002e24   Number         4  bsp_usart2.o(.text.UART2_IRQHandler)
    [Anonymous Symbol]                       0x00002e28   Section        0  bsp_usart3.o(.text.UART3_IRQHandler)
    __arm_cp.6_0                             0x00002eb8   Number         4  bsp_usart3.o(.text.UART3_IRQHandler)
    __arm_cp.6_1                             0x00002ebc   Number         4  bsp_usart3.o(.text.UART3_IRQHandler)
    __arm_cp.6_2                             0x00002ec0   Number         4  bsp_usart3.o(.text.UART3_IRQHandler)
    __arm_cp.6_3                             0x00002ec4   Number         4  bsp_usart3.o(.text.UART3_IRQHandler)
    [Anonymous Symbol]                       0x00002ec8   Section        0  app_bluetooth.o(.text.USE_Bluetooth_Control)
    __arm_cp.6_0                             0x00002f4c   Number         4  app_bluetooth.o(.text.USE_Bluetooth_Control)
    __arm_cp.6_1                             0x00002f50   Number         4  app_bluetooth.o(.text.USE_Bluetooth_Control)
    __arm_cp.6_3                             0x00002f54   Number         4  app_bluetooth.o(.text.USE_Bluetooth_Control)
    __arm_cp.6_4                             0x00002f58   Number         4  app_bluetooth.o(.text.USE_Bluetooth_Control)
    __arm_cp.6_5                             0x00002f5c   Number         4  app_bluetooth.o(.text.USE_Bluetooth_Control)
    [Anonymous Symbol]                       0x00002f60   Section        0  bsp_ultrasonic.o(.text.Ultrasonic_Init)
    [Anonymous Symbol]                       0x00002f70   Section        0  bsp_rgb.o(.text.Ws2812b_WriteByte)
    __arm_cp.4_0                             0x00003048   Number         4  bsp_rgb.o(.text.Ws2812b_WriteByte)
    [Anonymous Symbol]                       0x0000304c   Section        0  usart0.o(.text._sys_exit)
    [Anonymous Symbol]                       0x00003050   Section        0  app_rgb.o(.text.app_color)
    __arm_cp.0_0                             0x00003088   Number         4  app_rgb.o(.text.app_color)
    __arm_cp.0_1                             0x0000308c   Number         4  app_rgb.o(.text.app_color)
    [Anonymous Symbol]                       0x00003090   Section        0  bsp_bluetooth.o(.text.bluetooth_init)
    __arm_cp.0_0                             0x000030a0   Number         4  bsp_bluetooth.o(.text.bluetooth_init)
    __arm_cp.0_1                             0x000030a4   Number         4  bsp_bluetooth.o(.text.bluetooth_init)
    [Anonymous Symbol]                       0x000030a8   Section        0  bsp.o(.text.bsp_init)
    __arm_cp.1_2                             0x000030f4   Number         4  bsp.o(.text.bsp_init)
    [Anonymous Symbol]                       0x000030f8   Section        0  delay.o(.text.delay_ms)
    __arm_cp.1_0                             0x00003124   Number         4  delay.o(.text.delay_ms)
    [Anonymous Symbol]                       0x00003128   Section        0  delay.o(.text.delay_us)
    __arm_cp.0_0                             0x00003154   Number         4  delay.o(.text.delay_us)
    [Anonymous Symbol]                       0x00003158   Section        0  bsp_encoder.o(.text.encoder_init)
    __arm_cp.0_0                             0x00003170   Number         4  bsp_encoder.o(.text.encoder_init)
    __arm_cp.0_1                             0x00003174   Number         4  bsp_encoder.o(.text.encoder_init)
    [Anonymous Symbol]                       0x00003178   Section        0  bsp_encoder.o(.text.encoder_update)
    __arm_cp.5_0                             0x000031b4   Number         4  bsp_encoder.o(.text.encoder_update)
    __arm_cp.5_1                             0x000031b8   Number         4  bsp_encoder.o(.text.encoder_update)
    [Anonymous Symbol]                       0x000031bc   Section        0  usart0.o(.text.fputc)
    [Anonymous Symbol]                       0x000031cc   Section        0  bsp_ir_receiver.o(.text.infrared_config)
    [Anonymous Symbol]                       0x000031ce   Section        0  main.o(.text.main)
    [Anonymous Symbol]                       0x000031d8   Section        0  bsp_ir_receiver.o(.text.receiving_infrared_data)
    __arm_cp.5_0                             0x000032ec   Number         4  bsp_ir_receiver.o(.text.receiving_infrared_data)
    __arm_cp.5_1                             0x000032f0   Number         4  bsp_ir_receiver.o(.text.receiving_infrared_data)
    __arm_cp.5_2                             0x000032f4   Number         4  bsp_ir_receiver.o(.text.receiving_infrared_data)
    __arm_cp.5_3                             0x000032f8   Number         4  bsp_ir_receiver.o(.text.receiving_infrared_data)
    [Anonymous Symbol]                       0x000032fc   Section        0  bsp_rgb.o(.text.rgb_SendArray)
    __arm_cp.3_0                             0x0000331c   Number         4  bsp_rgb.o(.text.rgb_SendArray)
    [Anonymous Symbol]                       0x00003320   Section        0  bsp_rgb.o(.text.rgb_SetColor)
    __arm_cp.1_0                             0x0000333c   Number         4  bsp_rgb.o(.text.rgb_SetColor)
    __arm_cp.1_1                             0x00003340   Number         4  bsp_rgb.o(.text.rgb_SetColor)
    [Anonymous Symbol]                       0x00003344   Section        0  bsp_servo.o(.text.servo_init)
    __arm_cp.0_0                             0x00003350   Number         4  bsp_servo.o(.text.servo_init)
    [Anonymous Symbol]                       0x00003354   Section        0  usart0.o(.text.uart0_send_char)
    __arm_cp.0_0                             0x00003360   Number         4  usart0.o(.text.uart0_send_char)
    [Anonymous Symbol]                       0x00003364   Section        0  bsp_usart2.o(.text.usart2_init)
    __arm_cp.0_2                             0x0000337c   Number         4  bsp_usart2.o(.text.usart2_init)
    [Anonymous Symbol]                       0x00003380   Section        0  bsp_usart3.o(.text.usart3_init)
    __arm_cp.0_0                             0x00003398   Number         4  bsp_usart3.o(.text.usart3_init)
    __arm_cp.0_1                             0x0000339c   Number         4  bsp_usart3.o(.text.usart3_init)
    __arm_cp.0_2                             0x000033a0   Number         4  bsp_usart3.o(.text.usart3_init)
    [Anonymous Symbol]                       0x000033a4   Section        0  app_motor.o(.text.wheel_Ctrl)
    __arm_cp.13_0                            0x00003480   Number         4  app_motor.o(.text.wheel_Ctrl)
    __arm_cp.13_1                            0x00003484   Number         4  app_motor.o(.text.wheel_Ctrl)
    __arm_cp.13_2                            0x00003488   Number         4  app_motor.o(.text.wheel_Ctrl)
    __arm_cp.13_3                            0x0000348c   Number         4  app_motor.o(.text.wheel_Ctrl)
    __arm_cp.13_4                            0x00003490   Number         4  app_motor.o(.text.wheel_Ctrl)
    [Anonymous Symbol]                       0x00003494   Section        0  app_motor.o(.text.wheel_State)
    __arm_cp.16_0                            0x00003590   Number         4  app_motor.o(.text.wheel_State)
    __arm_cp.16_1                            0x00003594   Number         4  app_motor.o(.text.wheel_State)
    __arm_cp.16_2                            0x00003598   Number         4  app_motor.o(.text.wheel_State)
    __arm_cp.16_3                            0x0000359c   Number         4  app_motor.o(.text.wheel_State)
    i._fgeq                                  0x000035a0   Section        0  fcmp.o(i._fgeq)
    i._fgr                                   0x000035b6   Section        0  fcmp.o(i._fgr)
    x$fpl$fadd                               0x000035cc   Section      140  faddsub.o(x$fpl$fadd)
    _fadd1                                   0x000035d9   Thumb Code     0  faddsub.o(x$fpl$fadd)
    x$fpl$fgeqf                              0x00003658   Section       84  fgef.o(x$fpl$fgeqf)
    x$fpl$fmul                               0x000036ac   Section      176  fmul.o(x$fpl$fmul)
    x$fpl$fsub                               0x0000375c   Section      208  faddsub.o(x$fpl$fsub)
    _fsub1                                   0x00003769   Thumb Code     0  faddsub.o(x$fpl$fsub)
    uc_hextab                                0x0000382c   Data          20  _printf_hex_int.o(.constdata)
    .constdata                               0x0000382c   Section       40  _printf_hex_int.o(.constdata)
    x$fpl$usenofp                            0x0000382c   Section        0  usenofp.o(x$fpl$usenofp)
    lc_hextab                                0x00003840   Data          20  _printf_hex_int.o(.constdata)
    fdiv_tab                                 0x00003854   Data          64  fdiv.o(.constdata)
    .constdata                               0x00003854   Section       64  fdiv.o(.constdata)
    [Anonymous Symbol]                       0x00003894   Section        0  app_rgb.o(.rodata..Lswitch.table.app_color.1)
    gADC_SenorClockConfig                    0x00003ac8   Data           8  ti_msp_dl_config.o(.rodata.gADC_SenorClockConfig)
    [Anonymous Symbol]                       0x00003ac8   Section        0  ti_msp_dl_config.o(.rodata.gADC_SenorClockConfig)
    gPWM_ServoClockConfig                    0x00003ad0   Data           3  ti_msp_dl_config.o(.rodata.gPWM_ServoClockConfig)
    [Anonymous Symbol]                       0x00003ad0   Section        0  ti_msp_dl_config.o(.rodata.gPWM_ServoClockConfig)
    gPWM_ServoConfig                         0x00003ad4   Data           8  ti_msp_dl_config.o(.rodata.gPWM_ServoConfig)
    [Anonymous Symbol]                       0x00003ad4   Section        0  ti_msp_dl_config.o(.rodata.gPWM_ServoConfig)
    gSPI_W25Q64_clockConfig                  0x00003adc   Data           2  ti_msp_dl_config.o(.rodata.gSPI_W25Q64_clockConfig)
    [Anonymous Symbol]                       0x00003adc   Section        0  ti_msp_dl_config.o(.rodata.gSPI_W25Q64_clockConfig)
    gSPI_W25Q64_config                       0x00003ade   Data          10  ti_msp_dl_config.o(.rodata.gSPI_W25Q64_config)
    [Anonymous Symbol]                       0x00003ade   Section        0  ti_msp_dl_config.o(.rodata.gSPI_W25Q64_config)
    gSYSPLLConfig                            0x00003ae8   Data          40  ti_msp_dl_config.o(.rodata.gSYSPLLConfig)
    [Anonymous Symbol]                       0x00003ae8   Section        0  ti_msp_dl_config.o(.rodata.gSYSPLLConfig)
    gTIMER_1msClockConfig                    0x00003b10   Data           3  ti_msp_dl_config.o(.rodata.gTIMER_1msClockConfig)
    [Anonymous Symbol]                       0x00003b10   Section        0  ti_msp_dl_config.o(.rodata.gTIMER_1msClockConfig)
    gTIMER_1msTimerConfig                    0x00003b14   Data          20  ti_msp_dl_config.o(.rodata.gTIMER_1msTimerConfig)
    [Anonymous Symbol]                       0x00003b14   Section        0  ti_msp_dl_config.o(.rodata.gTIMER_1msTimerConfig)
    gTIMER_20msClockConfig                   0x00003b28   Data           3  ti_msp_dl_config.o(.rodata.gTIMER_20msClockConfig)
    [Anonymous Symbol]                       0x00003b28   Section        0  ti_msp_dl_config.o(.rodata.gTIMER_20msClockConfig)
    gTIMER_20msTimerConfig                   0x00003b2c   Data          20  ti_msp_dl_config.o(.rodata.gTIMER_20msTimerConfig)
    [Anonymous Symbol]                       0x00003b2c   Section        0  ti_msp_dl_config.o(.rodata.gTIMER_20msTimerConfig)
    gUART_0ClockConfig                       0x00003b40   Data           2  ti_msp_dl_config.o(.rodata.gUART_0ClockConfig)
    [Anonymous Symbol]                       0x00003b40   Section        0  ti_msp_dl_config.o(.rodata.gUART_0ClockConfig)
    gUART_0Config                            0x00003b42   Data          10  ti_msp_dl_config.o(.rodata.gUART_0Config)
    [Anonymous Symbol]                       0x00003b42   Section        0  ti_msp_dl_config.o(.rodata.gUART_0Config)
    gUART_1ClockConfig                       0x00003b4c   Data           2  ti_msp_dl_config.o(.rodata.gUART_1ClockConfig)
    [Anonymous Symbol]                       0x00003b4c   Section        0  ti_msp_dl_config.o(.rodata.gUART_1ClockConfig)
    gUART_1Config                            0x00003b4e   Data          10  ti_msp_dl_config.o(.rodata.gUART_1Config)
    [Anonymous Symbol]                       0x00003b4e   Section        0  ti_msp_dl_config.o(.rodata.gUART_1Config)
    gUART_2ClockConfig                       0x00003b58   Data           2  ti_msp_dl_config.o(.rodata.gUART_2ClockConfig)
    [Anonymous Symbol]                       0x00003b58   Section        0  ti_msp_dl_config.o(.rodata.gUART_2ClockConfig)
    gUART_2Config                            0x00003b5a   Data          10  ti_msp_dl_config.o(.rodata.gUART_2Config)
    [Anonymous Symbol]                       0x00003b5a   Section        0  ti_msp_dl_config.o(.rodata.gUART_2Config)
    gUART_3ClockConfig                       0x00003b64   Data           2  ti_msp_dl_config.o(.rodata.gUART_3ClockConfig)
    [Anonymous Symbol]                       0x00003b64   Section        0  ti_msp_dl_config.o(.rodata.gUART_3ClockConfig)
    gUART_3Config                            0x00003b66   Data          10  ti_msp_dl_config.o(.rodata.gUART_3Config)
    [Anonymous Symbol]                       0x00003b66   Section        0  ti_msp_dl_config.o(.rodata.gUART_3Config)
    gmotor_PWMClockConfig                    0x00003b70   Data           3  ti_msp_dl_config.o(.rodata.gmotor_PWMClockConfig)
    [Anonymous Symbol]                       0x00003b70   Section        0  ti_msp_dl_config.o(.rodata.gmotor_PWMClockConfig)
    gmotor_PWMConfig                         0x00003b74   Data           8  ti_msp_dl_config.o(.rodata.gmotor_PWMConfig)
    [Anonymous Symbol]                       0x00003b74   Section        0  ti_msp_dl_config.o(.rodata.gmotor_PWMConfig)
    [Anonymous Symbol]                       0x00003b7c   Section        0  bsp.o(.rodata.str1.1)
    [Anonymous Symbol]                       0x00003b8e   Section        0  bsp_ir_receiver.o(.rodata.str1.1)
    [Anonymous Symbol]                       0x00003b9c   Section        0  oled.o(.rodata.str1.1)
    [Anonymous Symbol]                       0x00003ba2   Section        0  app_bluetooth.o(.rodata.str1.1)
    .bss                                     0x20200028   Section       96  libspace.o(.bss)
    LineWalking.err                          0x20200092   Data           1  app_ir_track.o(.bss.LineWalking.err)
    [Anonymous Symbol]                       0x20200092   Section        0  app_ir_track.o(.bss.LineWalking.err)
    Processing_Data.g_index                  0x202002d3   Data           1  bsp_usart_voice.o(.bss.Processing_Data.g_index)
    [Anonymous Symbol]                       0x202002d3   Section        0  bsp_usart_voice.o(.bss.Processing_Data.g_index)
    Processing_Data.recv_buf                 0x202002d4   Data           6  bsp_usart_voice.o(.bss.Processing_Data.recv_buf)
    [Anonymous Symbol]                       0x202002d4   Section        0  bsp_usart_voice.o(.bss.Processing_Data.recv_buf)
    Track_PID.IRTrack_Integral               0x20200330   Data           4  app_ir_track.o(.bss.Track_PID.IRTrack_Integral)
    [Anonymous Symbol]                       0x20200330   Section        0  app_ir_track.o(.bss.Track_PID.IRTrack_Integral)
    g_speed_setup                            0x20200708   Data           2  app_motor.o(.bss.g_speed_setup)
    [Anonymous Symbol]                       0x20200708   Section        0  app_motor.o(.bss.g_speed_setup)
    motorL_encoder                           0x20200820   Data          24  bsp_encoder.o(.bss.motorL_encoder)
    [Anonymous Symbol]                       0x20200820   Section        0  bsp_encoder.o(.bss.motorL_encoder)
    motorR_encoder                           0x20200838   Data          24  bsp_encoder.o(.bss.motorR_encoder)
    [Anonymous Symbol]                       0x20200838   Section        0  bsp_encoder.o(.bss.motorR_encoder)
    speed_L1_setup                           0x20200a14   Data           4  app_motor.o(.bss.speed_L1_setup)
    [Anonymous Symbol]                       0x20200a14   Section        0  app_motor.o(.bss.speed_L1_setup)
    speed_R1_setup                           0x20200a18   Data           4  app_motor.o(.bss.speed_R1_setup)
    [Anonymous Symbol]                       0x20200a18   Section        0  app_motor.o(.bss.speed_R1_setup)
    Heap_Mem                                 0x20200a20   Data           0  startup_mspm0g350x_uvision.o(HEAP)
    Stack_Mem                                0x20200a20   Data        2048  startup_mspm0g350x_uvision.o(STACK)
    HEAP                                     0x20200a20   Section        0  startup_mspm0g350x_uvision.o(HEAP)
    STACK                                    0x20200a20   Section     2048  startup_mspm0g350x_uvision.o(STACK)
    __initial_sp                             0x20201220   Data           0  startup_mspm0g350x_uvision.o(STACK)

    Global Symbols

    Symbol Name                              Value     Ov Type        Size  Object(Section)

    BuildAttributes$$THM_ISAv3M$S$PE$A:L22$X:L11$S22$IEEE1$IW$~IW$USESV6$~STKCKD$USESV7$~SHL$OTIME$ROPI$EBA8$UX$STANDARDLIB$REQ8$PRES8$EABIv2 0x00000000   Number         0  anon$$obj.o ABSOLUTE
    __Vectors                                0x00000000   Data           4  startup_mspm0g350x_uvision.o(RESET)
    __ARM_exceptions_init                     - Undefined Weak Reference
    __alloca_initialize                       - Undefined Weak Reference
    __arm_preinit_                            - Undefined Weak Reference
    __cpp_initialize__aeabi_                  - Undefined Weak Reference
    __cxa_finalize                            - Undefined Weak Reference
    __rt_locale                               - Undefined Weak Reference
    __sigvec_lookup                           - Undefined Weak Reference
    _atexit_init                              - Undefined Weak Reference
    _call_atexit_fns                          - Undefined Weak Reference
    _clock_init                               - Undefined Weak Reference
    _fp_trap_init                             - Undefined Weak Reference
    _fp_trap_shutdown                         - Undefined Weak Reference
    _get_lc_collate                           - Undefined Weak Reference
    _get_lc_ctype                             - Undefined Weak Reference
    _get_lc_monetary                          - Undefined Weak Reference
    _get_lc_numeric                           - Undefined Weak Reference
    _get_lc_time                              - Undefined Weak Reference
    _getenv_init                              - Undefined Weak Reference
    _handle_redirection                       - Undefined Weak Reference
    _init_alloc                               - Undefined Weak Reference
    _init_user_alloc                          - Undefined Weak Reference
    _initio                                   - Undefined Weak Reference
    _mutex_acquire                            - Undefined Weak Reference
    _mutex_release                            - Undefined Weak Reference
    _printf_post_padding                      - Undefined Weak Reference
    _printf_pre_padding                       - Undefined Weak Reference
    _printf_truncate_signed                   - Undefined Weak Reference
    _printf_truncate_unsigned                 - Undefined Weak Reference
    _rand_init                                - Undefined Weak Reference
    _signal_finish                            - Undefined Weak Reference
    _signal_init                              - Undefined Weak Reference
    _terminate_alloc                          - Undefined Weak Reference
    _terminate_user_alloc                     - Undefined Weak Reference
    _terminateio                              - Undefined Weak Reference
    __Vectors_End                            0x000000c0   Data           0  startup_mspm0g350x_uvision.o(RESET)
    __Vectors_Size                           0x000000c0   Number         0  startup_mspm0g350x_uvision.o ABSOLUTE
    __main                                   0x000000c1   Thumb Code     8  __main.o(!!!main)
    __scatterload                            0x000000c9   Thumb Code     0  __scatter.o(!!!scatter)
    __scatterload_rt2                        0x000000c9   Thumb Code    52  __scatter.o(!!!scatter)
    __scatterload_rt2_thumb_only             0x000000c9   Thumb Code     0  __scatter.o(!!!scatter)
    __scatterload_null                       0x000000d9   Thumb Code     0  __scatter.o(!!!scatter)
    __scatterload_copy                       0x00000109   Thumb Code    26  __scatter_copy.o(!!handler_copy)
    __scatterload_zeroinit                   0x00000129   Thumb Code    28  __scatter_zi.o(!!handler_zi)
    _printf_percent                          0x00000145   Thumb Code     0  _printf_percent.o(.ARM.Collect$$_printf_percent$$00000000)
    _printf_d                                0x00000147   Thumb Code     0  _printf_d.o(.ARM.Collect$$_printf_percent$$00000009)
    _printf_x                                0x00000151   Thumb Code     0  _printf_x.o(.ARM.Collect$$_printf_percent$$0000000C)
    _printf_percent_end                      0x0000015b   Thumb Code     0  _printf_percent_end.o(.ARM.Collect$$_printf_percent$$00000017)
    __rt_lib_init                            0x0000015f   Thumb Code     0  libinit.o(.ARM.Collect$$libinit$$00000000)
    __rt_lib_init_alloca_1                   0x00000161   Thumb Code     0  libinit2.o(.ARM.Collect$$libinit$$0000002E)
    __rt_lib_init_argv_1                     0x00000161   Thumb Code     0  libinit2.o(.ARM.Collect$$libinit$$0000002C)
    __rt_lib_init_atexit_1                   0x00000161   Thumb Code     0  libinit2.o(.ARM.Collect$$libinit$$0000001B)
    __rt_lib_init_clock_1                    0x00000161   Thumb Code     0  libinit2.o(.ARM.Collect$$libinit$$00000021)
    __rt_lib_init_cpp_1                      0x00000161   Thumb Code     0  libinit2.o(.ARM.Collect$$libinit$$00000032)
    __rt_lib_init_exceptions_1               0x00000161   Thumb Code     0  libinit2.o(.ARM.Collect$$libinit$$00000030)
    __rt_lib_init_fp_1                       0x00000161   Thumb Code     0  libinit2.o(.ARM.Collect$$libinit$$00000002)
    __rt_lib_init_fp_trap_1                  0x00000161   Thumb Code     0  libinit2.o(.ARM.Collect$$libinit$$0000001F)
    __rt_lib_init_getenv_1                   0x00000161   Thumb Code     0  libinit2.o(.ARM.Collect$$libinit$$00000023)
    __rt_lib_init_heap_1                     0x00000161   Thumb Code     0  libinit2.o(.ARM.Collect$$libinit$$0000000A)
    __rt_lib_init_lc_collate_1               0x00000161   Thumb Code     0  libinit2.o(.ARM.Collect$$libinit$$00000011)
    __rt_lib_init_lc_ctype_1                 0x00000161   Thumb Code     0  libinit2.o(.ARM.Collect$$libinit$$00000013)
    __rt_lib_init_lc_monetary_1              0x00000161   Thumb Code     0  libinit2.o(.ARM.Collect$$libinit$$00000015)
    __rt_lib_init_lc_numeric_1               0x00000161   Thumb Code     0  libinit2.o(.ARM.Collect$$libinit$$00000017)
    __rt_lib_init_lc_time_1                  0x00000161   Thumb Code     0  libinit2.o(.ARM.Collect$$libinit$$00000019)
    __rt_lib_init_preinit_1                  0x00000161   Thumb Code     0  libinit2.o(.ARM.Collect$$libinit$$00000004)
    __rt_lib_init_rand_1                     0x00000161   Thumb Code     0  libinit2.o(.ARM.Collect$$libinit$$0000000E)
    __rt_lib_init_return                     0x00000161   Thumb Code     0  libinit2.o(.ARM.Collect$$libinit$$00000033)
    __rt_lib_init_signal_1                   0x00000161   Thumb Code     0  libinit2.o(.ARM.Collect$$libinit$$0000001D)
    __rt_lib_init_stdio_1                    0x00000161   Thumb Code     0  libinit2.o(.ARM.Collect$$libinit$$00000025)
    __rt_lib_init_user_alloc_1               0x00000161   Thumb Code     0  libinit2.o(.ARM.Collect$$libinit$$0000000C)
    __rt_lib_shutdown                        0x00000163   Thumb Code     0  libshutdown.o(.ARM.Collect$$libshutdown$$00000000)
    __rt_lib_shutdown_cpp_1                  0x00000165   Thumb Code     0  libshutdown2.o(.ARM.Collect$$libshutdown$$00000002)
    __rt_lib_shutdown_fp_trap_1              0x00000165   Thumb Code     0  libshutdown2.o(.ARM.Collect$$libshutdown$$00000007)
    __rt_lib_shutdown_heap_1                 0x00000165   Thumb Code     0  libshutdown2.o(.ARM.Collect$$libshutdown$$0000000F)
    __rt_lib_shutdown_return                 0x00000165   Thumb Code     0  libshutdown2.o(.ARM.Collect$$libshutdown$$00000010)
    __rt_lib_shutdown_signal_1               0x00000165   Thumb Code     0  libshutdown2.o(.ARM.Collect$$libshutdown$$0000000A)
    __rt_lib_shutdown_stdio_1                0x00000165   Thumb Code     0  libshutdown2.o(.ARM.Collect$$libshutdown$$00000004)
    __rt_lib_shutdown_user_alloc_1           0x00000165   Thumb Code     0  libshutdown2.o(.ARM.Collect$$libshutdown$$0000000C)
    __rt_entry                               0x00000167   Thumb Code     0  __rtentry.o(.ARM.Collect$$rtentry$$00000000)
    __rt_entry_presh_1                       0x00000167   Thumb Code     0  __rtentry2.o(.ARM.Collect$$rtentry$$00000002)
    __rt_entry_sh                            0x00000167   Thumb Code     0  __rtentry4.o(.ARM.Collect$$rtentry$$00000004)
    __rt_entry_li                            0x0000016d   Thumb Code     0  __rtentry2.o(.ARM.Collect$$rtentry$$0000000A)
    __rt_entry_postsh_1                      0x0000016d   Thumb Code     0  __rtentry2.o(.ARM.Collect$$rtentry$$00000009)
    __rt_entry_main                          0x00000171   Thumb Code     0  __rtentry2.o(.ARM.Collect$$rtentry$$0000000D)
    __rt_entry_postli_1                      0x00000171   Thumb Code     0  __rtentry2.o(.ARM.Collect$$rtentry$$0000000C)
    __rt_exit                                0x00000179   Thumb Code     0  rtexit.o(.ARM.Collect$$rtexit$$00000000)
    __rt_exit_ls                             0x0000017b   Thumb Code     0  rtexit2.o(.ARM.Collect$$rtexit$$00000003)
    __rt_exit_prels_1                        0x0000017b   Thumb Code     0  rtexit2.o(.ARM.Collect$$rtexit$$00000002)
    __rt_exit_exit                           0x0000017f   Thumb Code     0  rtexit2.o(.ARM.Collect$$rtexit$$00000004)
    __aeabi_memcpy4                          0x00000185   Thumb Code    56  rt_memcpy.o(.emb_text)
    __aeabi_memcpy8                          0x00000185   Thumb Code     0  rt_memcpy.o(.emb_text)
    Reset_Handler                            0x000001bd   Thumb Code     4  startup_mspm0g350x_uvision.o(.text)
    NMI_Handler                              0x000001c1   Thumb Code     2  startup_mspm0g350x_uvision.o(.text)
    HardFault_Handler                        0x000001c3   Thumb Code     2  startup_mspm0g350x_uvision.o(.text)
    SVC_Handler                              0x000001c5   Thumb Code     2  startup_mspm0g350x_uvision.o(.text)
    PendSV_Handler                           0x000001c7   Thumb Code     2  startup_mspm0g350x_uvision.o(.text)
    SysTick_Handler                          0x000001c9   Thumb Code     2  startup_mspm0g350x_uvision.o(.text)
    ADC1_IRQHandler                          0x000001cb   Thumb Code     0  startup_mspm0g350x_uvision.o(.text)
    AES_IRQHandler                           0x000001cb   Thumb Code     0  startup_mspm0g350x_uvision.o(.text)
    CANFD0_IRQHandler                        0x000001cb   Thumb Code     0  startup_mspm0g350x_uvision.o(.text)
    DAC0_IRQHandler                          0x000001cb   Thumb Code     0  startup_mspm0g350x_uvision.o(.text)
    DMA_IRQHandler                           0x000001cb   Thumb Code     0  startup_mspm0g350x_uvision.o(.text)
    Default_Handler                          0x000001cb   Thumb Code     2  startup_mspm0g350x_uvision.o(.text)
    GROUP0_IRQHandler                        0x000001cb   Thumb Code     0  startup_mspm0g350x_uvision.o(.text)
    I2C0_IRQHandler                          0x000001cb   Thumb Code     0  startup_mspm0g350x_uvision.o(.text)
    I2C1_IRQHandler                          0x000001cb   Thumb Code     0  startup_mspm0g350x_uvision.o(.text)
    RTC_IRQHandler                           0x000001cb   Thumb Code     0  startup_mspm0g350x_uvision.o(.text)
    SPI0_IRQHandler                          0x000001cb   Thumb Code     0  startup_mspm0g350x_uvision.o(.text)
    SPI1_IRQHandler                          0x000001cb   Thumb Code     0  startup_mspm0g350x_uvision.o(.text)
    TIMA0_IRQHandler                         0x000001cb   Thumb Code     0  startup_mspm0g350x_uvision.o(.text)
    TIMG12_IRQHandler                        0x000001cb   Thumb Code     0  startup_mspm0g350x_uvision.o(.text)
    TIMG6_IRQHandler                         0x000001cb   Thumb Code     0  startup_mspm0g350x_uvision.o(.text)
    TIMG7_IRQHandler                         0x000001cb   Thumb Code     0  startup_mspm0g350x_uvision.o(.text)
    TIMG8_IRQHandler                         0x000001cb   Thumb Code     0  startup_mspm0g350x_uvision.o(.text)
    __user_initial_stackheap                 0x000001cd   Thumb Code    10  startup_mspm0g350x_uvision.o(.text)
    __2printf                                0x000001e9   Thumb Code    22  noretval__2printf.o(.text)
    __printf                                 0x00000205   Thumb Code   108  __printf.o(.text)
    _printf_int_dec                          0x00000271   Thumb Code    90  _printf_dec.o(.text)
    _printf_int_hex                          0x000002dd   Thumb Code    84  _printf_hex_int.o(.text)
    _printf_longlong_hex                     0x000002dd   Thumb Code     0  _printf_hex_int.o(.text)
    puts                                     0x00000335   Thumb Code    38  puts.o(.text)
    _memset_w                                0x00000361   Thumb Code    26  rt_memclr.o(.text)
    _memset                                  0x0000037b   Thumb Code    30  rt_memclr.o(.text)
    __aeabi_memclr                           0x00000399   Thumb Code     4  rt_memclr.o(.text)
    __rt_memclr                              0x00000399   Thumb Code     0  rt_memclr.o(.text)
    __aeabi_memclr4                          0x0000039d   Thumb Code     0  rt_memclr.o(.text)
    __aeabi_memclr8                          0x0000039d   Thumb Code     0  rt_memclr.o(.text)
    __rt_memclr_w                            0x0000039d   Thumb Code     4  rt_memclr.o(.text)
    __aeabi_uidivmod                         0x000003a1   Thumb Code    28  aeabi_sdivfast.o(.text)
    __aeabi_idivmod                          0x000003bd   Thumb Code   472  aeabi_sdivfast.o(.text)
    __use_two_region_memory                  0x00000599   Thumb Code     2  heapauxi.o(.text)
    __rt_heap_escrow$2region                 0x0000059b   Thumb Code     2  heapauxi.o(.text)
    __rt_heap_expand$2region                 0x0000059d   Thumb Code     2  heapauxi.o(.text)
    __aeabi_d2f                              0x000005a1   Thumb Code     0  d2f.o(.text)
    _d2f                                     0x000005a1   Thumb Code   120  d2f.o(.text)
    __aeabi_dadd                             0x00000915   Thumb Code     0  daddsub.o(.text)
    _dadd                                    0x00000915   Thumb Code    26  daddsub.o(.text)
    __aeabi_dsub                             0x0000092f   Thumb Code     0  daddsub.o(.text)
    _dsub                                    0x0000092f   Thumb Code    22  daddsub.o(.text)
    __aeabi_drsub                            0x00000945   Thumb Code     0  daddsub.o(.text)
    _drsb                                    0x00000945   Thumb Code    28  daddsub.o(.text)
    __aeabi_i2d_normalise                    0x00000975   Thumb Code    66  dflti.o(.text)
    __aeabi_i2d                              0x000009b7   Thumb Code    16  dflti.o(.text)
    _dflt                                    0x000009b7   Thumb Code     0  dflti.o(.text)
    __aeabi_ui2d                             0x000009c7   Thumb Code     6  dflti.o(.text)
    _dfltu                                   0x000009c7   Thumb Code     0  dflti.o(.text)
    __aeabi_dmul                             0x000009cd   Thumb Code     0  dmul.o(.text)
    _dmul                                    0x000009cd   Thumb Code   558  dmul.o(.text)
    __aeabi_f2d                              0x00000c15   Thumb Code     0  f2d.o(.text)
    _f2d                                     0x00000c15   Thumb Code    80  f2d.o(.text)
    __aeabi_fdiv                             0x00000c69   Thumb Code     0  fdiv.o(.text)
    _fdiv                                    0x00000c69   Thumb Code   334  fdiv.o(.text)
    _frdiv                                   0x00000db7   Thumb Code     8  fdiv.o(.text)
    __aeabi_f2iz                             0x00000dc9   Thumb Code     0  ffixi.o(.text)
    _ffix                                    0x00000dc9   Thumb Code    76  ffixi.o(.text)
    __aeabi_f2uiz                            0x00000e15   Thumb Code     0  ffixui.o(.text)
    _ffixu                                   0x00000e15   Thumb Code    48  ffixui.o(.text)
    __aeabi_i2f_normalise                    0x00000e45   Thumb Code    72  fflti.o(.text)
    __aeabi_i2f                              0x00000e8d   Thumb Code    16  fflti.o(.text)
    _fflt                                    0x00000e8d   Thumb Code     0  fflti.o(.text)
    __aeabi_ui2f                             0x00000e9d   Thumb Code     6  fflti.o(.text)
    _ffltu                                   0x00000e9d   Thumb Code     0  fflti.o(.text)
    _printf_int_common                       0x00000ea3   Thumb Code   176  _printf_intcommon.o(.text)
    _printf_char_file                        0x00000f55   Thumb Code    34  _printf_char_file.o(.text)
    __rt_udiv10                              0x00000f7d   Thumb Code    40  rtudiv10.o(.text)
    _printf_char_common                      0x00000faf   Thumb Code    32  _printf_char_common.o(.text)
    ferror                                   0x00000fd5   Thumb Code     8  ferror.o(.text)
    __fpl_fcmp_InfNaN                        0x00000fdd   Thumb Code    96  fcmpin.o(.text)
    __user_setup_stackheap                   0x00001041   Thumb Code    62  sys_stackheap_outer.o(.text)
    exit                                     0x0000107f   Thumb Code    16  exit.o(.text)
    __fpl_cmpreturn                          0x0000108f   Thumb Code    46  cmpret.o(.text)
    __fpl_fcheck_NaN2                        0x000010bd   Thumb Code    10  fnan2.o(.text)
    __user_libspace                          0x000010cd   Thumb Code     8  libspace.o(.text)
    __user_perproc_libspace                  0x000010cd   Thumb Code     0  libspace.o(.text)
    __user_perthread_libspace                0x000010cd   Thumb Code     0  libspace.o(.text)
    __fpl_return_NaN                         0x000010d5   Thumb Code    94  retnan.o(.text)
    ADC0_IRQHandler                          0x00001135   Thumb Code    20  bsp_infrared_light.o(.text.ADC0_IRQHandler)
    ADC_Init                                 0x00001151   Thumb Code    24  bsp_infrared_light.o(.text.ADC_Init)
    DL_ADC12_setClockConfig                  0x00001175   Thumb Code    64  dl_adc12.o(.text.DL_ADC12_setClockConfig)
    DL_Common_delayCycles                    0x000011b5   Thumb Code    10  dl_common.o(.text.DL_Common_delayCycles)
    DL_SPI_init                              0x000011c1   Thumb Code    68  dl_spi.o(.text.DL_SPI_init)
    DL_SPI_setClockConfig                    0x00001205   Thumb Code    18  dl_spi.o(.text.DL_SPI_setClockConfig)
    DL_SYSCTL_configSYSPLL                   0x00001219   Thumb Code   196  dl_sysctl_mspm0g1x0x_g3x0x.o(.text.DL_SYSCTL_configSYSPLL)
    DL_SYSCTL_setHFCLKSourceHFXTParams       0x000012dd   Thumb Code    80  dl_sysctl_mspm0g1x0x_g3x0x.o(.text.DL_SYSCTL_setHFCLKSourceHFXTParams)
    DL_SYSCTL_switchMCLKfromSYSOSCtoHSCLK    0x0000132d   Thumb Code    40  dl_sysctl_mspm0g1x0x_g3x0x.o(.text.DL_SYSCTL_switchMCLKfromSYSOSCtoHSCLK)
    DL_Timer_initFourCCPWMMode               0x00001355   Thumb Code   264  dl_timer.o(.text.DL_Timer_initFourCCPWMMode)
    DL_Timer_initTimerMode                   0x0000145d   Thumb Code   240  dl_timer.o(.text.DL_Timer_initTimerMode)
    DL_Timer_setCaptCompUpdateMethod         0x0000154d   Thumb Code    28  dl_timer.o(.text.DL_Timer_setCaptCompUpdateMethod)
    DL_Timer_setCaptureCompareOutCtl         0x00001569   Thumb Code    24  dl_timer.o(.text.DL_Timer_setCaptureCompareOutCtl)
    DL_Timer_setCaptureCompareValue          0x00001581   Thumb Code    16  dl_timer.o(.text.DL_Timer_setCaptureCompareValue)
    DL_Timer_setClockConfig                  0x00001591   Thumb Code    28  dl_timer.o(.text.DL_Timer_setClockConfig)
    DL_UART_init                             0x000015ad   Thumb Code    72  dl_uart.o(.text.DL_UART_init)
    DL_UART_setClockConfig                   0x000015f5   Thumb Code    18  dl_uart.o(.text.DL_UART_setClockConfig)
    Deal_Bluetooth                           0x00001609   Thumb Code    80  app_bluetooth.o(.text.Deal_Bluetooth)
    Deal_Motor_Data                          0x0000166d   Thumb Code   136  app_bluetooth.o(.text.Deal_Motor_Data)
    Encoder_Get_ALL                          0x00001701   Thumb Code    16  bsp_encoder.o(.text.Encoder_Get_ALL)
    GROUP1_IRQHandler                        0x00001711   Thumb Code   236  bsp_encoder.o(.text.GROUP1_IRQHandler)
    Init_Motor_PWM                           0x00001815   Thumb Code    12  bsp_motor.o(.text.Init_Motor_PWM)
    LineWalking                              0x00001825   Thumb Code   168  app_ir_track.o(.text.LineWalking)
    Motion_Ctrl                              0x000018d9   Thumb Code     8  app_motor.o(.text.Motion_Ctrl)
    Motion_Get_Speed                         0x000018e1   Thumb Code   172  app_motor.o(.text.Motion_Get_Speed)
    Motion_Handle                            0x000019a9   Thumb Code    72  app_motor.o(.text.Motion_Handle)
    Motor_Stop                               0x00001a01   Thumb Code    60  bsp_motor.o(.text.Motor_Stop)
    OLED_Init                                0x00001a45   Thumb Code  1196  oled.o(.text.OLED_Init)
    OLED_Refresh                             0x00001f05   Thumb Code   248  oled.o(.text.OLED_Refresh)
    OLED_WR_Byte                             0x00002001   Thumb Code   156  oled.o(.text.OLED_WR_Byte)
    OPEN_MCULED                              0x0000209d   Thumb Code    12  bsp_beep_led.o(.text.OPEN_MCULED)
    PID_Calc_Motor                           0x000020ad   Thumb Code    32  bsp_pid_motor.o(.text.PID_Calc_Motor)
    PID_Clear_Motor                          0x000020cd   Thumb Code    56  bsp_pid_motor.o(.text.PID_Clear_Motor)
    PID_Incre_Calc                           0x00002105   Thumb Code   148  bsp_pid_motor.o(.text.PID_Incre_Calc)
    PID_Param_Init                           0x000021a1   Thumb Code    64  bsp_pid_motor.o(.text.PID_Param_Init)
    PID_Set_Motor_Target                     0x000021f9   Thumb Code    28  bsp_pid_motor.o(.text.PID_Set_Motor_Target)
    PWM_Control_Car                          0x00002219   Thumb Code   184  bsp_motor.o(.text.PWM_Control_Car)
    Processing_Data                          0x000022dd   Thumb Code   112  bsp_usart_voice.o(.text.Processing_Data)
    RingBuff_Init                            0x00002355   Thumb Code    10  bsp_usart3.o(.text.RingBuff_Init)
    SYSCFG_DL_ADC_Senor_init                 0x00002361   Thumb Code    88  ti_msp_dl_config.o(.text.SYSCFG_DL_ADC_Senor_init)
    SYSCFG_DL_GPIO_init                      0x000023d5   Thumb Code   248  ti_msp_dl_config.o(.text.SYSCFG_DL_GPIO_init)
    SYSCFG_DL_PWM_Servo_init                 0x00002509   Thumb Code   116  ti_msp_dl_config.o(.text.SYSCFG_DL_PWM_Servo_init)
    SYSCFG_DL_SPI_W25Q64_init                0x0000258d   Thumb Code    56  ti_msp_dl_config.o(.text.SYSCFG_DL_SPI_W25Q64_init)
    SYSCFG_DL_SYSCTL_CLK_init                0x000025d9   Thumb Code    16  ti_msp_dl_config.o(.text.SYSCFG_DL_SYSCTL_CLK_init)
    SYSCFG_DL_SYSCTL_init                    0x000025f1   Thumb Code   108  ti_msp_dl_config.o(.text.SYSCFG_DL_SYSCTL_init)
    SYSCFG_DL_SYSTICK_init                   0x00002669   Thumb Code    24  ti_msp_dl_config.o(.text.SYSCFG_DL_SYSTICK_init)
    SYSCFG_DL_TIMER_1ms_init                 0x00002685   Thumb Code    56  ti_msp_dl_config.o(.text.SYSCFG_DL_TIMER_1ms_init)
    SYSCFG_DL_TIMER_20ms_init                0x000026d1   Thumb Code    52  ti_msp_dl_config.o(.text.SYSCFG_DL_TIMER_20ms_init)
    SYSCFG_DL_UART_0_init                    0x0000271d   Thumb Code    88  ti_msp_dl_config.o(.text.SYSCFG_DL_UART_0_init)
    SYSCFG_DL_UART_1_init                    0x00002789   Thumb Code   100  ti_msp_dl_config.o(.text.SYSCFG_DL_UART_1_init)
    SYSCFG_DL_UART_2_init                    0x00002801   Thumb Code   104  ti_msp_dl_config.o(.text.SYSCFG_DL_UART_2_init)
    SYSCFG_DL_UART_3_init                    0x00002881   Thumb Code   104  ti_msp_dl_config.o(.text.SYSCFG_DL_UART_3_init)
    SYSCFG_DL_init                           0x00002905   Thumb Code    96  ti_msp_dl_config.o(.text.SYSCFG_DL_init)
    SYSCFG_DL_initPower                      0x00002979   Thumb Code   104  ti_msp_dl_config.o(.text.SYSCFG_DL_initPower)
    SYSCFG_DL_motor_PWM_init                 0x00002a19   Thumb Code   192  ti_msp_dl_config.o(.text.SYSCFG_DL_motor_PWM_init)
    Send_Byte                                0x00002ae9   Thumb Code   276  oled.o(.text.Send_Byte)
    Set_Servo_Angle                          0x00002c01   Thumb Code    68  bsp_servo.o(.text.Set_Servo_Angle)
    TIMA1_IRQHandler                         0x00002c59   Thumb Code    20  bsp_ultrasonic.o(.text.TIMA1_IRQHandler)
    TIMG0_IRQHandler                         0x00002c75   Thumb Code    48  bsp_timer.o(.text.TIMG0_IRQHandler)
    Timer_20ms_Init                          0x00002cb1   Thumb Code    24  bsp_timer.o(.text.Timer_20ms_Init)
    Track_PID                                0x00002ccd   Thumb Code   120  app_ir_track.o(.text.Track_PID)
    UART0_IRQHandler                         0x00002d59   Thumb Code    60  usart0.o(.text.UART0_IRQHandler)
    UART1_IRQHandler                         0x00002da9   Thumb Code    32  bsp_bluetooth.o(.text.UART1_IRQHandler)
    UART2_IRQHandler                         0x00002dd1   Thumb Code    60  bsp_usart2.o(.text.UART2_IRQHandler)
    UART3_IRQHandler                         0x00002e29   Thumb Code   144  bsp_usart3.o(.text.UART3_IRQHandler)
    USE_Bluetooth_Control                    0x00002ec9   Thumb Code   132  app_bluetooth.o(.text.USE_Bluetooth_Control)
    Ultrasonic_Init                          0x00002f61   Thumb Code    16  bsp_ultrasonic.o(.text.Ultrasonic_Init)
    Ws2812b_WriteByte                        0x00002f71   Thumb Code   216  bsp_rgb.o(.text.Ws2812b_WriteByte)
    _sys_exit                                0x0000304d   Thumb Code     2  usart0.o(.text._sys_exit)
    app_color                                0x00003051   Thumb Code    56  app_rgb.o(.text.app_color)
    bluetooth_init                           0x00003091   Thumb Code    16  bsp_bluetooth.o(.text.bluetooth_init)
    bsp_init                                 0x000030a9   Thumb Code    76  bsp.o(.text.bsp_init)
    delay_ms                                 0x000030f9   Thumb Code    44  delay.o(.text.delay_ms)
    delay_us                                 0x00003129   Thumb Code    44  delay.o(.text.delay_us)
    encoder_init                             0x00003159   Thumb Code    24  bsp_encoder.o(.text.encoder_init)
    encoder_update                           0x00003179   Thumb Code    60  bsp_encoder.o(.text.encoder_update)
    fputc                                    0x000031bd   Thumb Code    16  usart0.o(.text.fputc)
    infrared_config                          0x000031cd   Thumb Code     2  bsp_ir_receiver.o(.text.infrared_config)
    main                                     0x000031cf   Thumb Code    10  main.o(.text.main)
    receiving_infrared_data                  0x000031d9   Thumb Code   276  bsp_ir_receiver.o(.text.receiving_infrared_data)
    rgb_SendArray                            0x000032fd   Thumb Code    32  bsp_rgb.o(.text.rgb_SendArray)
    rgb_SetColor                             0x00003321   Thumb Code    28  bsp_rgb.o(.text.rgb_SetColor)
    servo_init                               0x00003345   Thumb Code    12  bsp_servo.o(.text.servo_init)
    uart0_send_char                          0x00003355   Thumb Code    12  usart0.o(.text.uart0_send_char)
    usart2_init                              0x00003365   Thumb Code    24  bsp_usart2.o(.text.usart2_init)
    usart3_init                              0x00003381   Thumb Code    24  bsp_usart3.o(.text.usart3_init)
    wheel_Ctrl                               0x000033a5   Thumb Code   220  app_motor.o(.text.wheel_Ctrl)
    wheel_State                              0x00003495   Thumb Code   252  app_motor.o(.text.wheel_State)
    __aeabi_fcmpge                           0x000035a1   Thumb Code     0  fcmp.o(i._fgeq)
    _fgeq                                    0x000035a1   Thumb Code    22  fcmp.o(i._fgeq)
    __aeabi_fcmpgt                           0x000035b7   Thumb Code     0  fcmp.o(i._fgr)
    _fgr                                     0x000035b7   Thumb Code    22  fcmp.o(i._fgr)
    __aeabi_fadd                             0x000035cd   Thumb Code     0  faddsub.o(x$fpl$fadd)
    _fadd                                    0x000035cd   Thumb Code   134  faddsub.o(x$fpl$fadd)
    _fcmpge                                  0x00003659   Thumb Code    78  fgef.o(x$fpl$fgeqf)
    __aeabi_fmul                             0x000036ad   Thumb Code     0  fmul.o(x$fpl$fmul)
    _fmul                                    0x000036ad   Thumb Code   172  fmul.o(x$fpl$fmul)
    __aeabi_fsub                             0x0000375d   Thumb Code     0  faddsub.o(x$fpl$fsub)
    _fsub                                    0x0000375d   Thumb Code   204  faddsub.o(x$fpl$fsub)
    __I$use$fp                               0x0000382c   Number         0  usenofp.o(x$fpl$usenofp)
    asc2_0806                                0x000038a0   Data         552  oled.o(.rodata.asc2_0806)
    Region$$Table$$Base                      0x00003ba8   Number         0  anon$$obj.o(Region$$Table)
    Region$$Table$$Limit                     0x00003bc8   Number         0  anon$$obj.o(Region$$Table)
    CarSpeedControl                          0x20200000   Data           4  app_bluetooth.o(.data.CarSpeedControl)
    ledsCount                                0x20200004   Data           4  bsp_rgb.o(.data.ledsCount)
    nbLedsBytes                              0x20200008   Data           4  bsp_rgb.o(.data.nbLedsBytes)
    pid_Yaw                                  0x2020000c   Data          28  bsp_pid_motor.o(.data.pid_Yaw)
    __libspace_start                         0x20200028   Data          96  libspace.o(.bss)
    InfraredData                             0x20200088   Data           4  bsp_ir_receiver.o(.bss.InfraredData)
    __temporary_stack_top$libspace           0x20200088   Data           0  libspace.o(.bss)
    LedsArray                                0x2020008c   Data           6  bsp_rgb.o(.bss.LedsArray)
    OLED_GRAM                                0x20200093   Data         576  oled.o(.bss.OLED_GRAM)
    ProtocolString                           0x202002dc   Data          80  app_bluetooth.o(.bss.ProtocolString)
    Servo_Angle                              0x2020032c   Data           4  bsp_servo.o(.bss.Servo_Angle)
    Uart2_RingBuff                           0x20200334   Data         206  bsp_usart3.o(.bss.Uart2_RingBuff)
    Uart3_RingBuff                           0x20200402   Data         206  bsp_usart3.o(.bss.Uart3_RingBuff)
    __stdout                                 0x202004d0   Data          84  usart0.o(.bss.__stdout)
    car_data                                 0x20200524   Data           6  app_motor.o(.bss.car_data)
    gCheckADC                                0x2020052a   Data           1  bsp_infrared_light.o(.bss.gCheckADC)
    gPWM_ServoBackup                         0x2020052c   Data         160  ti_msp_dl_config.o(.bss.gPWM_ServoBackup)
    gSPI_W25Q64Backup                        0x202005cc   Data          40  ti_msp_dl_config.o(.bss.gSPI_W25Q64Backup)
    gTIMER_1msBackup                         0x202005f4   Data         188  ti_msp_dl_config.o(.bss.gTIMER_1msBackup)
    gUART_3Backup                            0x202006b0   Data          48  ti_msp_dl_config.o(.bss.gUART_3Backup)
    g_CarState                               0x202006e0   Data           1  app_bluetooth.o(.bss.g_CarState)
    g_Encoder_All_Last                       0x202006e4   Data           8  app_motor.o(.bss.g_Encoder_All_Last)
    g_Encoder_All_Now                        0x202006ec   Data           8  app_motor.o(.bss.g_Encoder_All_Now)
    g_Encoder_All_Offset                     0x202006f4   Data           8  app_motor.o(.bss.g_Encoder_All_Offset)
    g_modeSelect                             0x202006fc   Data           1  app_bluetooth.o(.bss.g_modeSelect)
    g_num                                    0x20200700   Data           4  app_bluetooth.o(.bss.g_num)
    g_packnum                                0x20200704   Data           4  app_bluetooth.o(.bss.g_packnum)
    g_start_ctrl                             0x2020070a   Data           1  app_motor.o(.bss.g_start_ctrl)
    g_yaw_adjust                             0x2020070b   Data           1  app_motor.o(.bss.g_yaw_adjust)
    get_mode                                 0x2020070c   Data           1  bsp_usart2.o(.bss.get_mode)
    get_v                                    0x2020070d   Data           1  bsp_usart2.o(.bss.get_v)
    gled_cnt                                 0x2020070e   Data           1  bsp_timer.o(.bss.gled_cnt)
    gmotor_PWMBackup                         0x20200710   Data         188  ti_msp_dl_config.o(.bss.gmotor_PWMBackup)
    inputString                              0x202007cc   Data          80  app_bluetooth.o(.bss.inputString)
    motor_data                               0x20200850   Data          20  app_motor.o(.bss.motor_data)
    msHcCount                                0x20200864   Data           4  bsp_ultrasonic.o(.bss.msHcCount)
    newLineReceived                          0x20200868   Data           1  app_bluetooth.o(.bss.newLineReceived)
    pid_motor                                0x2020086c   Data          80  bsp_pid_motor.o(.bss.pid_motor)
    pid_output_IRR                           0x202008bc   Data           4  app_ir_track.o(.bss.pid_output_IRR)
    recv0_buff                               0x202008c0   Data         128  usart0.o(.bss.recv0_buff)
    recv0_flag                               0x20200940   Data           1  usart0.o(.bss.recv0_flag)
    recv0_length                             0x20200942   Data           2  usart0.o(.bss.recv0_length)
    recv2_buff                               0x20200944   Data         200  bsp_usart2.o(.bss.recv2_buff)
    recv2_flag                               0x20200a0c   Data           1  bsp_usart2.o(.bss.recv2_flag)
    recv2_length                             0x20200a0e   Data           2  bsp_usart2.o(.bss.recv2_length)
    recv3_flag                               0x20200a10   Data           1  bsp_usart3.o(.bss.recv3_flag)
    startBit                                 0x20200a1c   Data           1  app_bluetooth.o(.bss.startBit)



==============================================================================

Memory Map of the image

  Image Entry point : 0x000000c1

  Load Region LR_IROM1 (Base: 0x00000000, Size: 0x00003bf0, Max: 0x00020000, ABSOLUTE)

    Execution Region ER_IROM1 (Exec base: 0x00000000, Load base: 0x00000000, Size: 0x00003bc8, Max: 0x00020000, ABSOLUTE)

    Exec Addr    Load Addr    Size         Type   Attr      Idx    E Section Name        Object

    0x00000000   0x00000000   0x000000c0   Data   RO            3    RESET               startup_mspm0g350x_uvision.o
    0x000000c0   0x000000c0   0x00000008   Code   RO         1098  * !!!main             c_p.l(__main.o)
    0x000000c8   0x000000c8   0x0000003c   Code   RO         1338    !!!scatter          c_p.l(__scatter.o)
    0x00000104   0x00000104   0x00000004   PAD
    0x00000108   0x00000108   0x0000001a   Code   RO         1340    !!handler_copy      c_p.l(__scatter_copy.o)
    0x00000122   0x00000122   0x00000006   PAD
    0x00000128   0x00000128   0x0000001c   Code   RO         1342    !!handler_zi        c_p.l(__scatter_zi.o)
    0x00000144   0x00000144   0x00000002   Code   RO         1077    .ARM.Collect$$_printf_percent$$00000000  c_p.l(_printf_percent.o)
    0x00000146   0x00000146   0x0000000a   Code   RO         1076    .ARM.Collect$$_printf_percent$$00000009  c_p.l(_printf_d.o)
    0x00000150   0x00000150   0x0000000a   Code   RO         1075    .ARM.Collect$$_printf_percent$$0000000C  c_p.l(_printf_x.o)
    0x0000015a   0x0000015a   0x00000004   Code   RO         1148    .ARM.Collect$$_printf_percent$$00000017  c_p.l(_printf_percent_end.o)
    0x0000015e   0x0000015e   0x00000002   Code   RO         1199    .ARM.Collect$$libinit$$00000000  c_p.l(libinit.o)
    0x00000160   0x00000160   0x00000000   Code   RO         1217    .ARM.Collect$$libinit$$00000002  c_p.l(libinit2.o)
    0x00000160   0x00000160   0x00000000   Code   RO         1219    .ARM.Collect$$libinit$$00000004  c_p.l(libinit2.o)
    0x00000160   0x00000160   0x00000000   Code   RO         1222    .ARM.Collect$$libinit$$0000000A  c_p.l(libinit2.o)
    0x00000160   0x00000160   0x00000000   Code   RO         1224    .ARM.Collect$$libinit$$0000000C  c_p.l(libinit2.o)
    0x00000160   0x00000160   0x00000000   Code   RO         1226    .ARM.Collect$$libinit$$0000000E  c_p.l(libinit2.o)
    0x00000160   0x00000160   0x00000000   Code   RO         1229    .ARM.Collect$$libinit$$00000011  c_p.l(libinit2.o)
    0x00000160   0x00000160   0x00000000   Code   RO         1231    .ARM.Collect$$libinit$$00000013  c_p.l(libinit2.o)
    0x00000160   0x00000160   0x00000000   Code   RO         1233    .ARM.Collect$$libinit$$00000015  c_p.l(libinit2.o)
    0x00000160   0x00000160   0x00000000   Code   RO         1235    .ARM.Collect$$libinit$$00000017  c_p.l(libinit2.o)
    0x00000160   0x00000160   0x00000000   Code   RO         1237    .ARM.Collect$$libinit$$00000019  c_p.l(libinit2.o)
    0x00000160   0x00000160   0x00000000   Code   RO         1239    .ARM.Collect$$libinit$$0000001B  c_p.l(libinit2.o)
    0x00000160   0x00000160   0x00000000   Code   RO         1241    .ARM.Collect$$libinit$$0000001D  c_p.l(libinit2.o)
    0x00000160   0x00000160   0x00000000   Code   RO         1243    .ARM.Collect$$libinit$$0000001F  c_p.l(libinit2.o)
    0x00000160   0x00000160   0x00000000   Code   RO         1245    .ARM.Collect$$libinit$$00000021  c_p.l(libinit2.o)
    0x00000160   0x00000160   0x00000000   Code   RO         1247    .ARM.Collect$$libinit$$00000023  c_p.l(libinit2.o)
    0x00000160   0x00000160   0x00000000   Code   RO         1249    .ARM.Collect$$libinit$$00000025  c_p.l(libinit2.o)
    0x00000160   0x00000160   0x00000000   Code   RO         1253    .ARM.Collect$$libinit$$0000002C  c_p.l(libinit2.o)
    0x00000160   0x00000160   0x00000000   Code   RO         1255    .ARM.Collect$$libinit$$0000002E  c_p.l(libinit2.o)
    0x00000160   0x00000160   0x00000000   Code   RO         1257    .ARM.Collect$$libinit$$00000030  c_p.l(libinit2.o)
    0x00000160   0x00000160   0x00000000   Code   RO         1259    .ARM.Collect$$libinit$$00000032  c_p.l(libinit2.o)
    0x00000160   0x00000160   0x00000002   Code   RO         1260    .ARM.Collect$$libinit$$00000033  c_p.l(libinit2.o)
    0x00000162   0x00000162   0x00000002   Code   RO         1290    .ARM.Collect$$libshutdown$$00000000  c_p.l(libshutdown.o)
    0x00000164   0x00000164   0x00000000   Code   RO         1321    .ARM.Collect$$libshutdown$$00000002  c_p.l(libshutdown2.o)
    0x00000164   0x00000164   0x00000000   Code   RO         1323    .ARM.Collect$$libshutdown$$00000004  c_p.l(libshutdown2.o)
    0x00000164   0x00000164   0x00000000   Code   RO         1326    .ARM.Collect$$libshutdown$$00000007  c_p.l(libshutdown2.o)
    0x00000164   0x00000164   0x00000000   Code   RO         1329    .ARM.Collect$$libshutdown$$0000000A  c_p.l(libshutdown2.o)
    0x00000164   0x00000164   0x00000000   Code   RO         1331    .ARM.Collect$$libshutdown$$0000000C  c_p.l(libshutdown2.o)
    0x00000164   0x00000164   0x00000000   Code   RO         1334    .ARM.Collect$$libshutdown$$0000000F  c_p.l(libshutdown2.o)
    0x00000164   0x00000164   0x00000002   Code   RO         1335    .ARM.Collect$$libshutdown$$00000010  c_p.l(libshutdown2.o)
    0x00000166   0x00000166   0x00000000   Code   RO         1139    .ARM.Collect$$rtentry$$00000000  c_p.l(__rtentry.o)
    0x00000166   0x00000166   0x00000000   Code   RO         1159    .ARM.Collect$$rtentry$$00000002  c_p.l(__rtentry2.o)
    0x00000166   0x00000166   0x00000006   Code   RO         1171    .ARM.Collect$$rtentry$$00000004  c_p.l(__rtentry4.o)
    0x0000016c   0x0000016c   0x00000000   Code   RO         1161    .ARM.Collect$$rtentry$$00000009  c_p.l(__rtentry2.o)
    0x0000016c   0x0000016c   0x00000004   Code   RO         1162    .ARM.Collect$$rtentry$$0000000A  c_p.l(__rtentry2.o)
    0x00000170   0x00000170   0x00000000   Code   RO         1164    .ARM.Collect$$rtentry$$0000000C  c_p.l(__rtentry2.o)
    0x00000170   0x00000170   0x00000008   Code   RO         1165    .ARM.Collect$$rtentry$$0000000D  c_p.l(__rtentry2.o)
    0x00000178   0x00000178   0x00000002   Code   RO         1208    .ARM.Collect$$rtexit$$00000000  c_p.l(rtexit.o)
    0x0000017a   0x0000017a   0x00000000   Code   RO         1264    .ARM.Collect$$rtexit$$00000002  c_p.l(rtexit2.o)
    0x0000017a   0x0000017a   0x00000004   Code   RO         1265    .ARM.Collect$$rtexit$$00000003  c_p.l(rtexit2.o)
    0x0000017e   0x0000017e   0x00000006   Code   RO         1266    .ARM.Collect$$rtexit$$00000004  c_p.l(rtexit2.o)
    0x00000184   0x00000184   0x00000038   Code   RO         1082    .emb_text           c_p.l(rt_memcpy.o)
    0x000001bc   0x000001bc   0x0000002c   Code   RO            4    .text               startup_mspm0g350x_uvision.o
    0x000001e8   0x000001e8   0x0000001c   Code   RO         1028    .text               c_p.l(noretval__2printf.o)
    0x00000204   0x00000204   0x0000006c   Code   RO         1030    .text               c_p.l(__printf.o)
    0x00000270   0x00000270   0x0000006c   Code   RO         1032    .text               c_p.l(_printf_dec.o)
    0x000002dc   0x000002dc   0x00000058   Code   RO         1037    .text               c_p.l(_printf_hex_int.o)
    0x00000334   0x00000334   0x0000002c   Code   RO         1078    .text               c_p.l(puts.o)
    0x00000360   0x00000360   0x00000040   Code   RO         1086    .text               c_p.l(rt_memclr.o)
    0x000003a0   0x000003a0   0x000001f8   Code   RO         1088    .text               c_p.l(aeabi_sdivfast.o)
    0x00000598   0x00000598   0x00000006   Code   RO         1096    .text               c_p.l(heapauxi.o)
    0x0000059e   0x0000059e   0x00000002   PAD
    0x000005a0   0x000005a0   0x0000007c   Code   RO         1100    .text               fz_ps.l(d2f.o)
    0x0000061c   0x0000061c   0x00000358   Code   RO         1102    .text               fz_ps.l(daddsub.o)
    0x00000974   0x00000974   0x00000058   Code   RO         1104    .text               fz_ps.l(dflti.o)
    0x000009cc   0x000009cc   0x00000248   Code   RO         1106    .text               fz_ps.l(dmul.o)
    0x00000c14   0x00000c14   0x00000054   Code   RO         1108    .text               fz_ps.l(f2d.o)
    0x00000c68   0x00000c68   0x00000160   Code   RO         1128    .text               fz_ps.l(fdiv.o)
    0x00000dc8   0x00000dc8   0x0000004c   Code   RO         1131    .text               fz_ps.l(ffixi.o)
    0x00000e14   0x00000e14   0x00000030   Code   RO         1133    .text               fz_ps.l(ffixui.o)
    0x00000e44   0x00000e44   0x0000005e   Code   RO         1135    .text               fz_ps.l(fflti.o)
    0x00000ea2   0x00000ea2   0x000000b0   Code   RO         1144    .text               c_p.l(_printf_intcommon.o)
    0x00000f52   0x00000f52   0x00000002   PAD
    0x00000f54   0x00000f54   0x00000028   Code   RO         1146    .text               c_p.l(_printf_char_file.o)
    0x00000f7c   0x00000f7c   0x00000028   Code   RO         1149    .text               c_p.l(rtudiv10.o)
    0x00000fa4   0x00000fa4   0x00000030   Code   RO         1175    .text               c_p.l(_printf_char_common.o)
    0x00000fd4   0x00000fd4   0x00000008   Code   RO         1177    .text               c_p.l(ferror.o)
    0x00000fdc   0x00000fdc   0x00000064   Code   RO         1181    .text               fz_ps.l(fcmpin.o)
    0x00001040   0x00001040   0x0000003e   Code   RO         1183    .text               c_p.l(sys_stackheap_outer.o)
    0x0000107e   0x0000107e   0x00000010   Code   RO         1188    .text               c_p.l(exit.o)
    0x0000108e   0x0000108e   0x0000002e   Code   RO         1200    .text               fz_ps.l(cmpret.o)
    0x000010bc   0x000010bc   0x00000010   Code   RO         1202    .text               fz_ps.l(fnan2.o)
    0x000010cc   0x000010cc   0x00000008   Code   RO         1204    .text               c_p.l(libspace.o)
    0x000010d4   0x000010d4   0x0000005e   Code   RO         1261    .text               fz_ps.l(retnan.o)
    0x00001132   0x00001132   0x00000002   PAD
    0x00001134   0x00001134   0x0000001c   Code   RO          224    .text.ADC0_IRQHandler  bsp_infrared_light.o
    0x00001150   0x00001150   0x00000024   Code   RO          218    .text.ADC_Init      bsp_infrared_light.o
    0x00001174   0x00001174   0x00000040   Code   RO          781    .text.DL_ADC12_setClockConfig  driverlib.a(dl_adc12.o)
    0x000011b4   0x000011b4   0x0000000a   Code   RO          793    .text.DL_Common_delayCycles  driverlib.a(dl_common.o)
    0x000011be   0x000011be   0x00000002   PAD
    0x000011c0   0x000011c0   0x00000044   Code   RO          802    .text.DL_SPI_init   driverlib.a(dl_spi.o)
    0x00001204   0x00001204   0x00000012   Code   RO          804    .text.DL_SPI_setClockConfig  driverlib.a(dl_spi.o)
    0x00001216   0x00001216   0x00000002   PAD
    0x00001218   0x00001218   0x000000c4   Code   RO          993    .text.DL_SYSCTL_configSYSPLL  driverlib.a(dl_sysctl_mspm0g1x0x_g3x0x.o)
    0x000012dc   0x000012dc   0x00000050   Code   RO         1007    .text.DL_SYSCTL_setHFCLKSourceHFXTParams  driverlib.a(dl_sysctl_mspm0g1x0x_g3x0x.o)
    0x0000132c   0x0000132c   0x00000028   Code   RO         1001    .text.DL_SYSCTL_switchMCLKfromSYSOSCtoHSCLK  driverlib.a(dl_sysctl_mspm0g1x0x_g3x0x.o)
    0x00001354   0x00001354   0x00000108   Code   RO          932    .text.DL_Timer_initFourCCPWMMode  driverlib.a(dl_timer.o)
    0x0000145c   0x0000145c   0x000000f0   Code   RO          860    .text.DL_Timer_initTimerMode  driverlib.a(dl_timer.o)
    0x0000154c   0x0000154c   0x0000001c   Code   RO          902    .text.DL_Timer_setCaptCompUpdateMethod  driverlib.a(dl_timer.o)
    0x00001568   0x00001568   0x00000018   Code   RO          906    .text.DL_Timer_setCaptureCompareOutCtl  driverlib.a(dl_timer.o)
    0x00001580   0x00001580   0x00000010   Code   RO          862    .text.DL_Timer_setCaptureCompareValue  driverlib.a(dl_timer.o)
    0x00001590   0x00001590   0x0000001c   Code   RO          856    .text.DL_Timer_setClockConfig  driverlib.a(dl_timer.o)
    0x000015ac   0x000015ac   0x00000048   Code   RO          953    .text.DL_UART_init  driverlib.a(dl_uart.o)
    0x000015f4   0x000015f4   0x00000012   Code   RO          955    .text.DL_UART_setClockConfig  driverlib.a(dl_uart.o)
    0x00001606   0x00001606   0x00000002   PAD
    0x00001608   0x00001608   0x00000064   Code   RO          730    .text.Deal_Bluetooth  app_bluetooth.o
    0x0000166c   0x0000166c   0x00000094   Code   RO          738    .text.Deal_Motor_Data  app_bluetooth.o
    0x00001700   0x00001700   0x00000010   Code   RO          304    .text.Encoder_Get_ALL  bsp_encoder.o
    0x00001710   0x00001710   0x00000104   Code   RO          310    .text.GROUP1_IRQHandler  bsp_encoder.o
    0x00001814   0x00001814   0x00000010   Code   RO          268    .text.Init_Motor_PWM  bsp_motor.o
    0x00001824   0x00001824   0x000000b4   Code   RO          717    .text.LineWalking   app_ir_track.o
    0x000018d8   0x000018d8   0x00000008   Code   RO          645    .text.Motion_Ctrl   app_motor.o
    0x000018e0   0x000018e0   0x000000c8   Code   RO          637    .text.Motion_Get_Speed  app_motor.o
    0x000019a8   0x000019a8   0x00000058   Code   RO          655    .text.Motion_Handle  app_motor.o
    0x00001a00   0x00001a00   0x00000044   Code   RO          280    .text.Motor_Stop    bsp_motor.o
    0x00001a44   0x00001a44   0x000004c0   Code   RO          380    .text.OLED_Init     oled.o
    0x00001f04   0x00001f04   0x000000fc   Code   RO          356    .text.OLED_Refresh  oled.o
    0x00002000   0x00002000   0x0000009c   Code   RO          338    .text.OLED_WR_Byte  oled.o
    0x0000209c   0x0000209c   0x00000010   Code   RO          145    .text.OPEN_MCULED   bsp_beep_led.o
    0x000020ac   0x000020ac   0x00000020   Code   RO          687    .text.PID_Calc_Motor  bsp_pid_motor.o
    0x000020cc   0x000020cc   0x00000038   Code   RO          693    .text.PID_Clear_Motor  bsp_pid_motor.o
    0x00002104   0x00002104   0x0000009c   Code   RO          683    .text.PID_Incre_Calc  bsp_pid_motor.o
    0x000021a0   0x000021a0   0x00000058   Code   RO          675    .text.PID_Param_Init  bsp_pid_motor.o
    0x000021f8   0x000021f8   0x00000020   Code   RO          695    .text.PID_Set_Motor_Target  bsp_pid_motor.o
    0x00002218   0x00002218   0x000000c4   Code   RO          274    .text.PWM_Control_Car  bsp_motor.o
    0x000022dc   0x000022dc   0x00000078   Code   RO          552    .text.Processing_Data  bsp_usart_voice.o
    0x00002354   0x00002354   0x0000000a   Code   RO          525    .text.RingBuff_Init  bsp_usart3.o
    0x0000235e   0x0000235e   0x00000002   PAD
    0x00002360   0x00002360   0x00000074   Code   RO           37    .text.SYSCFG_DL_ADC_Senor_init  ti_msp_dl_config.o
    0x000023d4   0x000023d4   0x00000134   Code   RO           15    .text.SYSCFG_DL_GPIO_init  ti_msp_dl_config.o
    0x00002508   0x00002508   0x00000084   Code   RO           21    .text.SYSCFG_DL_PWM_Servo_init  ti_msp_dl_config.o
    0x0000258c   0x0000258c   0x0000004c   Code   RO           35    .text.SYSCFG_DL_SPI_W25Q64_init  ti_msp_dl_config.o
    0x000025d8   0x000025d8   0x00000018   Code   RO           41    .text.SYSCFG_DL_SYSCTL_CLK_init  ti_msp_dl_config.o
    0x000025f0   0x000025f0   0x00000078   Code   RO           17    .text.SYSCFG_DL_SYSCTL_init  ti_msp_dl_config.o
    0x00002668   0x00002668   0x0000001c   Code   RO           39    .text.SYSCFG_DL_SYSTICK_init  ti_msp_dl_config.o
    0x00002684   0x00002684   0x0000004c   Code   RO           25    .text.SYSCFG_DL_TIMER_1ms_init  ti_msp_dl_config.o
    0x000026d0   0x000026d0   0x0000004c   Code   RO           23    .text.SYSCFG_DL_TIMER_20ms_init  ti_msp_dl_config.o
    0x0000271c   0x0000271c   0x0000006c   Code   RO           27    .text.SYSCFG_DL_UART_0_init  ti_msp_dl_config.o
    0x00002788   0x00002788   0x00000078   Code   RO           29    .text.SYSCFG_DL_UART_1_init  ti_msp_dl_config.o
    0x00002800   0x00002800   0x00000080   Code   RO           31    .text.SYSCFG_DL_UART_2_init  ti_msp_dl_config.o
    0x00002880   0x00002880   0x00000084   Code   RO           33    .text.SYSCFG_DL_UART_3_init  ti_msp_dl_config.o
    0x00002904   0x00002904   0x00000074   Code   RO           11    .text.SYSCFG_DL_init  ti_msp_dl_config.o
    0x00002978   0x00002978   0x000000a0   Code   RO           13    .text.SYSCFG_DL_initPower  ti_msp_dl_config.o
    0x00002a18   0x00002a18   0x000000d0   Code   RO           19    .text.SYSCFG_DL_motor_PWM_init  ti_msp_dl_config.o
    0x00002ae8   0x00002ae8   0x00000118   Code   RO          350    .text.Send_Byte     oled.o
    0x00002c00   0x00002c00   0x00000058   Code   RO          483    .text.Set_Servo_Angle  bsp_servo.o
    0x00002c58   0x00002c58   0x0000001c   Code   RO          460    .text.TIMA1_IRQHandler  bsp_ultrasonic.o
    0x00002c74   0x00002c74   0x0000003c   Code   RO          326    .text.TIMG0_IRQHandler  bsp_timer.o
    0x00002cb0   0x00002cb0   0x0000001c   Code   RO          324    .text.Timer_20ms_Init  bsp_timer.o
    0x00002ccc   0x00002ccc   0x0000008c   Code   RO          715    .text.Track_PID     app_ir_track.o
    0x00002d58   0x00002d58   0x00000050   Code   RO          131    .text.UART0_IRQHandler  usart0.o
    0x00002da8   0x00002da8   0x00000028   Code   RO          768    .text.UART1_IRQHandler  bsp_bluetooth.o
    0x00002dd0   0x00002dd0   0x00000058   Code   RO          507    .text.UART2_IRQHandler  bsp_usart2.o
    0x00002e28   0x00002e28   0x000000a0   Code   RO          535    .text.UART3_IRQHandler  bsp_usart3.o
    0x00002ec8   0x00002ec8   0x00000098   Code   RO          742    .text.USE_Bluetooth_Control  app_bluetooth.o
    0x00002f60   0x00002f60   0x00000010   Code   RO          452    .text.Ultrasonic_Init  bsp_ultrasonic.o
    0x00002f70   0x00002f70   0x000000dc   Code   RO          195    .text.Ws2812b_WriteByte  bsp_rgb.o
    0x0000304c   0x0000304c   0x00000002   Code   RO          127    .text._sys_exit     usart0.o
    0x0000304e   0x0000304e   0x00000002   PAD
    0x00003050   0x00003050   0x00000040   Code   RO          594    .text.app_color     app_rgb.o
    0x00003090   0x00003090   0x00000018   Code   RO          762    .text.bluetooth_init  bsp_bluetooth.o
    0x000030a8   0x000030a8   0x00000050   Code   RO           97    .text.bsp_init      bsp.o
    0x000030f8   0x000030f8   0x00000030   Code   RO          109    .text.delay_ms      delay.o
    0x00003128   0x00003128   0x00000030   Code   RO          107    .text.delay_us      delay.o
    0x00003158   0x00003158   0x00000020   Code   RO          298    .text.encoder_init  bsp_encoder.o
    0x00003178   0x00003178   0x00000044   Code   RO          308    .text.encoder_update  bsp_encoder.o
    0x000031bc   0x000031bc   0x00000010   Code   RO          129    .text.fputc         usart0.o
    0x000031cc   0x000031cc   0x00000002   Code   RO          242    .text.infrared_config  bsp_ir_receiver.o
    0x000031ce   0x000031ce   0x0000000a   Code   RO           80    .text.main          main.o
    0x000031d8   0x000031d8   0x00000124   Code   RO          252    .text.receiving_infrared_data  bsp_ir_receiver.o
    0x000032fc   0x000032fc   0x00000024   Code   RO          193    .text.rgb_SendArray  bsp_rgb.o
    0x00003320   0x00003320   0x00000024   Code   RO          189    .text.rgb_SetColor  bsp_rgb.o
    0x00003344   0x00003344   0x00000010   Code   RO          479    .text.servo_init    bsp_servo.o
    0x00003354   0x00003354   0x00000010   Code   RO          123    .text.uart0_send_char  usart0.o
    0x00003364   0x00003364   0x0000001c   Code   RO          501    .text.usart2_init   bsp_usart2.o
    0x00003380   0x00003380   0x00000024   Code   RO          523    .text.usart3_init   bsp_usart3.o
    0x000033a4   0x000033a4   0x000000f0   Code   RO          647    .text.wheel_Ctrl    app_motor.o
    0x00003494   0x00003494   0x0000010c   Code   RO          653    .text.wheel_State   app_motor.o
    0x000035a0   0x000035a0   0x00000016   Code   RO         1117    i._fgeq             fz_ps.l(fcmp.o)
    0x000035b6   0x000035b6   0x00000016   Code   RO         1118    i._fgr              fz_ps.l(fcmp.o)
    0x000035cc   0x000035cc   0x0000008c   Code   RO         1110    x$fpl$fadd          fz_ps.l(faddsub.o)
    0x00003658   0x00003658   0x00000054   Code   RO         1153    x$fpl$fgeqf         fz_ps.l(fgef.o)
    0x000036ac   0x000036ac   0x000000b0   Code   RO         1137    x$fpl$fmul          fz_ps.l(fmul.o)
    0x0000375c   0x0000375c   0x000000d0   Code   RO         1112    x$fpl$fsub          fz_ps.l(faddsub.o)
    0x0000382c   0x0000382c   0x00000000   Code   RO         1157    x$fpl$usenofp       fz_ps.l(usenofp.o)
    0x0000382c   0x0000382c   0x00000028   Data   RO         1038    .constdata          c_p.l(_printf_hex_int.o)
    0x00003854   0x00003854   0x00000040   Data   RO         1129    .constdata          fz_ps.l(fdiv.o)
    0x00003894   0x00003894   0x0000000c   Data   RO          598    .rodata..Lswitch.table.app_color.1  app_rgb.o
    0x000038a0   0x000038a0   0x00000228   Data   RO          384    .rodata.asc2_0806   oled.o
    0x00003ac8   0x00003ac8   0x00000008   Data   RO           71    .rodata.gADC_SenorClockConfig  ti_msp_dl_config.o
    0x00003ad0   0x00003ad0   0x00000003   Data   RO           55    .rodata.gPWM_ServoClockConfig  ti_msp_dl_config.o
    0x00003ad3   0x00003ad3   0x00000001   PAD
    0x00003ad4   0x00003ad4   0x00000008   Data   RO           56    .rodata.gPWM_ServoConfig  ti_msp_dl_config.o
    0x00003adc   0x00003adc   0x00000002   Data   RO           69    .rodata.gSPI_W25Q64_clockConfig  ti_msp_dl_config.o
    0x00003ade   0x00003ade   0x0000000a   Data   RO           70    .rodata.gSPI_W25Q64_config  ti_msp_dl_config.o
    0x00003ae8   0x00003ae8   0x00000028   Data   RO           52    .rodata.gSYSPLLConfig  ti_msp_dl_config.o
    0x00003b10   0x00003b10   0x00000003   Data   RO           59    .rodata.gTIMER_1msClockConfig  ti_msp_dl_config.o
    0x00003b13   0x00003b13   0x00000001   PAD
    0x00003b14   0x00003b14   0x00000014   Data   RO           60    .rodata.gTIMER_1msTimerConfig  ti_msp_dl_config.o
    0x00003b28   0x00003b28   0x00000003   Data   RO           57    .rodata.gTIMER_20msClockConfig  ti_msp_dl_config.o
    0x00003b2b   0x00003b2b   0x00000001   PAD
    0x00003b2c   0x00003b2c   0x00000014   Data   RO           58    .rodata.gTIMER_20msTimerConfig  ti_msp_dl_config.o
    0x00003b40   0x00003b40   0x00000002   Data   RO           61    .rodata.gUART_0ClockConfig  ti_msp_dl_config.o
    0x00003b42   0x00003b42   0x0000000a   Data   RO           62    .rodata.gUART_0Config  ti_msp_dl_config.o
    0x00003b4c   0x00003b4c   0x00000002   Data   RO           63    .rodata.gUART_1ClockConfig  ti_msp_dl_config.o
    0x00003b4e   0x00003b4e   0x0000000a   Data   RO           64    .rodata.gUART_1Config  ti_msp_dl_config.o
    0x00003b58   0x00003b58   0x00000002   Data   RO           65    .rodata.gUART_2ClockConfig  ti_msp_dl_config.o
    0x00003b5a   0x00003b5a   0x0000000a   Data   RO           66    .rodata.gUART_2Config  ti_msp_dl_config.o
    0x00003b64   0x00003b64   0x00000002   Data   RO           67    .rodata.gUART_3ClockConfig  ti_msp_dl_config.o
    0x00003b66   0x00003b66   0x0000000a   Data   RO           68    .rodata.gUART_3Config  ti_msp_dl_config.o
    0x00003b70   0x00003b70   0x00000003   Data   RO           53    .rodata.gmotor_PWMClockConfig  ti_msp_dl_config.o
    0x00003b73   0x00003b73   0x00000001   PAD
    0x00003b74   0x00003b74   0x00000008   Data   RO           54    .rodata.gmotor_PWMConfig  ti_msp_dl_config.o
    0x00003b7c   0x00003b7c   0x00000012   Data   RO           99    .rodata.str1.1      bsp.o
    0x00003b8e   0x00003b8e   0x0000000e   Data   RO          258    .rodata.str1.1      bsp_ir_receiver.o
    0x00003b9c   0x00003b9c   0x00000006   Data   RO          393    .rodata.str1.1      oled.o
    0x00003ba2   0x00003ba2   0x00000004   Data   RO          753    .rodata.str1.1      app_bluetooth.o
    0x00003ba6   0x00003ba6   0x00000002   PAD
    0x00003ba8   0x00003ba8   0x00000020   Data   RO         1337    Region$$Table       anon$$obj.o


    Execution Region RW_IRAM2 (Exec base: 0x20200000, Load base: 0x00003bc8, Size: 0x00001220, Max: 0x00008000, ABSOLUTE)

    Exec Addr    Load Addr    Size         Type   Attr      Idx    E Section Name        Object

    0x20200000   0x00003bc8   0x00000004   Data   RW          747    .data.CarSpeedControl  app_bluetooth.o
    0x20200004   0x00003bcc   0x00000004   Data   RW          199    .data.ledsCount     bsp_rgb.o
    0x20200008   0x00003bd0   0x00000004   Data   RW          200    .data.nbLedsBytes   bsp_rgb.o
    0x2020000c   0x00003bd4   0x0000001c   Data   RW          705    .data.pid_Yaw       bsp_pid_motor.o
    0x20200028        -       0x00000060   Zero   RW         1205    .bss                c_p.l(libspace.o)
    0x20200088        -       0x00000004   Zero   RW          259    .bss.InfraredData   bsp_ir_receiver.o
    0x2020008c        -       0x00000006   Zero   RW          201    .bss.LedsArray      bsp_rgb.o
    0x20200092        -       0x00000001   Zero   RW          721    .bss.LineWalking.err  app_ir_track.o
    0x20200093        -       0x00000240   Zero   RW          392    .bss.OLED_GRAM      oled.o
    0x202002d3        -       0x00000001   Zero   RW          557    .bss.Processing_Data.g_index  bsp_usart_voice.o
    0x202002d4        -       0x00000006   Zero   RW          556    .bss.Processing_Data.recv_buf  bsp_usart_voice.o
    0x202002da   0x00003bf0   0x00000002   PAD
    0x202002dc        -       0x00000050   Zero   RW          752    .bss.ProtocolString  app_bluetooth.o
    0x2020032c        -       0x00000004   Zero   RW          491    .bss.Servo_Angle    bsp_servo.o
    0x20200330        -       0x00000004   Zero   RW          720    .bss.Track_PID.IRTrack_Integral  app_ir_track.o
    0x20200334        -       0x000000ce   Zero   RW          539    .bss.Uart2_RingBuff  bsp_usart3.o
    0x20200402        -       0x000000ce   Zero   RW          538    .bss.Uart3_RingBuff  bsp_usart3.o
    0x202004d0        -       0x00000054   Zero   RW          136    .bss.__stdout       usart0.o
    0x20200524        -       0x00000006   Zero   RW          666    .bss.car_data       app_motor.o
    0x2020052a        -       0x00000001   Zero   RW          228    .bss.gCheckADC      bsp_infrared_light.o
    0x2020052b   0x00003bf0   0x00000001   PAD
    0x2020052c        -       0x000000a0   Zero   RW           48    .bss.gPWM_ServoBackup  ti_msp_dl_config.o
    0x202005cc        -       0x00000028   Zero   RW           51    .bss.gSPI_W25Q64Backup  ti_msp_dl_config.o
    0x202005f4        -       0x000000bc   Zero   RW           49    .bss.gTIMER_1msBackup  ti_msp_dl_config.o
    0x202006b0        -       0x00000030   Zero   RW           50    .bss.gUART_3Backup  ti_msp_dl_config.o
    0x202006e0        -       0x00000001   Zero   RW          750    .bss.g_CarState     app_bluetooth.o
    0x202006e1   0x00003bf0   0x00000003   PAD
    0x202006e4        -       0x00000008   Zero   RW          658    .bss.g_Encoder_All_Last  app_motor.o
    0x202006ec        -       0x00000008   Zero   RW          657    .bss.g_Encoder_All_Now  app_motor.o
    0x202006f4        -       0x00000008   Zero   RW          659    .bss.g_Encoder_All_Offset  app_motor.o
    0x202006fc        -       0x00000001   Zero   RW          751    .bss.g_modeSelect   app_bluetooth.o
    0x202006fd   0x00003bf0   0x00000003   PAD
    0x20200700        -       0x00000004   Zero   RW          744    .bss.g_num          app_bluetooth.o
    0x20200704        -       0x00000004   Zero   RW          746    .bss.g_packnum      app_bluetooth.o
    0x20200708        -       0x00000002   Zero   RW          663    .bss.g_speed_setup  app_motor.o
    0x2020070a        -       0x00000001   Zero   RW          660    .bss.g_start_ctrl   app_motor.o
    0x2020070b        -       0x00000001   Zero   RW          661    .bss.g_yaw_adjust   app_motor.o
    0x2020070c        -       0x00000001   Zero   RW          513    .bss.get_mode       bsp_usart2.o
    0x2020070d        -       0x00000001   Zero   RW          514    .bss.get_v          bsp_usart2.o
    0x2020070e        -       0x00000001   Zero   RW          328    .bss.gled_cnt       bsp_timer.o
    0x2020070f   0x00003bf0   0x00000001   PAD
    0x20200710        -       0x000000bc   Zero   RW           47    .bss.gmotor_PWMBackup  ti_msp_dl_config.o
    0x202007cc        -       0x00000050   Zero   RW          749    .bss.inputString    app_bluetooth.o
    0x2020081c   0x00003bf0   0x00000004   PAD
    0x20200820        -       0x00000018   Zero   RW          314    .bss.motorL_encoder  bsp_encoder.o
    0x20200838        -       0x00000018   Zero   RW          315    .bss.motorR_encoder  bsp_encoder.o
    0x20200850        -       0x00000014   Zero   RW          662    .bss.motor_data     app_motor.o
    0x20200864        -       0x00000004   Zero   RW          468    .bss.msHcCount      bsp_ultrasonic.o
    0x20200868        -       0x00000001   Zero   RW          748    .bss.newLineReceived  app_bluetooth.o
    0x20200869   0x00003bf0   0x00000003   PAD
    0x2020086c        -       0x00000050   Zero   RW          706    .bss.pid_motor      bsp_pid_motor.o
    0x202008bc        -       0x00000004   Zero   RW          719    .bss.pid_output_IRR  app_ir_track.o
    0x202008c0        -       0x00000080   Zero   RW          133    .bss.recv0_buff     usart0.o
    0x20200940        -       0x00000001   Zero   RW          135    .bss.recv0_flag     usart0.o
    0x20200941   0x00003bf0   0x00000001   PAD
    0x20200942        -       0x00000002   Zero   RW          134    .bss.recv0_length   usart0.o
    0x20200944        -       0x000000c8   Zero   RW          509    .bss.recv2_buff     bsp_usart2.o
    0x20200a0c        -       0x00000001   Zero   RW          511    .bss.recv2_flag     bsp_usart2.o
    0x20200a0d   0x00003bf0   0x00000001   PAD
    0x20200a0e        -       0x00000002   Zero   RW          510    .bss.recv2_length   bsp_usart2.o
    0x20200a10        -       0x00000001   Zero   RW          537    .bss.recv3_flag     bsp_usart3.o
    0x20200a11   0x00003bf0   0x00000003   PAD
    0x20200a14        -       0x00000004   Zero   RW          664    .bss.speed_L1_setup  app_motor.o
    0x20200a18        -       0x00000004   Zero   RW          665    .bss.speed_R1_setup  app_motor.o
    0x20200a1c        -       0x00000001   Zero   RW          745    .bss.startBit       app_bluetooth.o
    0x20200a1d   0x00003bf0   0x00000003   PAD
    0x20200a20        -       0x00000000   Zero   RW            2    HEAP                startup_mspm0g350x_uvision.o
    0x20200a20        -       0x00000800   Zero   RW            1    STACK               startup_mspm0g350x_uvision.o



  Load Region LR_BCR (Base: 0x41c00000, Size: 0x00000000, Max: 0x00000100, ABSOLUTE)

    Execution Region BCR_CONFIG (Exec base: 0x41c00000, Load base: 0x41c00000, Size: 0x00000000, Max: 0x00000080, ABSOLUTE)

    **** No section assigned to this execution region ****



  Load Region LR_BSL (Base: 0x41c00100, Size: 0x00000000, Max: 0x00000100, ABSOLUTE)

    Execution Region BSL_CONFIG (Exec base: 0x41c00100, Load base: 0x41c00100, Size: 0x00000000, Max: 0x00000080, ABSOLUTE)

    **** No section assigned to this execution region ****


==============================================================================

Image component sizes


      Code (inc. data)   RO Data    RW Data    ZI Data      Debug   Object Name

       400         58          4          4        172       3082   app_bluetooth.o
       320         32          0          0          9       4456   app_ir_track.o
       804        112          0          0         62       8468   app_motor.o
        64          8         12          0          0        879   app_rgb.o
        80          4         18          0          0       2365   bsp.o
        16          4          0          0          0       3801   bsp_beep_led.o
        64         16          0          0          0       5766   bsp_bluetooth.o
       376         40          0          0         48       7774   bsp_encoder.o
        64         20          0          0          1      10071   bsp_infrared_light.o
       294         16         14          0          4       7560   bsp_ir_receiver.o
       280         24          0          0          0       7657   bsp_motor.o
       364         36          0         28         80       4924   bsp_pid_motor.o
       292         16          0          8          6       5814   bsp_rgb.o
       104         24          0          0          4       5938   bsp_servo.o
        88         16          0          0          1       7644   bsp_timer.o
        44          8          0          0          4      10209   bsp_ultrasonic.o
       116         32          0          0        205       5900   bsp_usart2.o
       206         28          0          0        413       7124   bsp_usart3.o
       120          8          0          0          7       1569   bsp_usart_voice.o
        96          8          0          0          0       2848   delay.o
        10          0          0          0          0        934   main.o
      1904         28        558          0        576      28548   oled.o
        44         18        192          0       2048        664   startup_mspm0g350x_uvision.o
      1928        376        176          0        624      45784   ti_msp_dl_config.o
       114         24          0          0        215       5026   usart0.o

    ----------------------------------------------------------------------
      8196        956       1012         40       4504     194805   Object Totals
         0          0         32          0          0          0   (incl. Generated)
         4          0          6          0         25          0   (incl. Padding)

    ----------------------------------------------------------------------

      Code (inc. data)   RO Data    RW Data    ZI Data      Debug   Library Member Name

         8          0          0          0          0         68   __main.o
       108          0          0          0          0         76   __printf.o
         0          0          0          0          0          0   __rtentry.o
        12          0          0          0          0          0   __rtentry2.o
         6          0          0          0          0          0   __rtentry4.o
        60          8          0          0          0          0   __scatter.o
        26          0          0          0          0          0   __scatter_copy.o
        28          0          0          0          0          0   __scatter_zi.o
        48          6          0          0          0         88   _printf_char_common.o
        40          6          0          0          0         72   _printf_char_file.o
        10          0          0          0          0          0   _printf_d.o
       108         18          0          0          0         76   _printf_dec.o
        88          4         40          0          0         72   _printf_hex_int.o
       176          0          0          0          0         84   _printf_intcommon.o
         2          0          0          0          0          0   _printf_percent.o
         4          0          0          0          0          0   _printf_percent_end.o
        10          0          0          0          0          0   _printf_x.o
       504          4          0          0          0         92   aeabi_sdivfast.o
        16          0          0          0          0         68   exit.o
         8          0          0          0          0         60   ferror.o
         6          0          0          0          0        136   heapauxi.o
         2          0          0          0          0          0   libinit.o
         2          0          0          0          0          0   libinit2.o
         2          0          0          0          0          0   libshutdown.o
         2          0          0          0          0          0   libshutdown2.o
         8          4          0          0         96         68   libspace.o
        28          6          0          0          0         84   noretval__2printf.o
        44          6          0          0          0         68   puts.o
        64          0          0          0          0        108   rt_memclr.o
        56          0          0          0          0         68   rt_memcpy.o
         2          0          0          0          0          0   rtexit.o
        10          0          0          0          0          0   rtexit2.o
        40          0          0          0          0         60   rtudiv10.o
        62          0          0          0          0         80   sys_stackheap_outer.o
        64          8          0          0          0       4702   dl_adc12.o
        10          0          0          0          0        803   dl_common.o
        86          8          0          0          0      13463   dl_spi.o
       316         28          0          0          0      18491   dl_sysctl_mspm0g1x0x_g3x0x.o
       600        192          0          0          0      39888   dl_timer.o
        90          8          0          0          0      14128   dl_uart.o
        46          0          0          0          0         60   cmpret.o
       124          4          0          0          0         72   d2f.o
       856         20          0          0          0        208   daddsub.o
        88          0          0          0          0         92   dflti.o
       584         26          0          0          0         84   dmul.o
        84          4          0          0          0         60   f2d.o
       348          8          0          0          0        160   faddsub.o
        44          0          0          0          0        136   fcmp.o
       100          4          0          0          0         68   fcmpin.o
       352         10         64          0          0         92   fdiv.o
        76          0          0          0          0         68   ffixi.o
        48          0          0          0          0         60   ffixui.o
        94          0          0          0          0         92   fflti.o
        84          4          0          0          0         76   fgef.o
       176          4          0          0          0         80   fmul.o
        16          6          0          0          0         68   fnan2.o
        94          0          0          0          0         68   retnan.o
         0          0          0          0          0          0   usenofp.o

    ----------------------------------------------------------------------
      5992        400        104          0         96      94447   Library Totals
        22          4          0          0          0          0   (incl. Padding)

    ----------------------------------------------------------------------

      Code (inc. data)   RO Data    RW Data    ZI Data      Debug   Library Name

      1590         62         40          0         96       1428   c_p.l
      1166        244          0          0          0      91475   driverlib.a
      3214         90         64          0          0       1544   fz_ps.l

    ----------------------------------------------------------------------
      5992        400        104          0         96      94447   Library Totals

    ----------------------------------------------------------------------

==============================================================================


      Code (inc. data)   RO Data    RW Data    ZI Data      Debug   

     14188       1356       1116         40       4600     287220   Grand Totals
     14188       1356       1116         40       4600     287220   ELF Image Totals
     14188       1356       1116         40          0          0   ROM Totals

==============================================================================

    Total RO  Size (Code + RO Data)                15304 (  14.95kB)
    Total RW  Size (RW Data + ZI Data)              4640 (   4.53kB)
    Total ROM Size (Code + RO Data + RW Data)      15344 (  14.98kB)

==============================================================================

